
========================================================================

** ELF Header Information

    File Name: D:\Ubuntu\github\SWM330_Alg_QSPI0_NOR_MDK\out\SWM330_QSPI0_NOR.axf

    Machine class: ELFCLASS32 (32-bit)
    Data encoding: ELFDATA2LSB (Little endian)
    Header version: EV_CURRENT (Current version)
    Operating System ABI: none
    ABI Version: 0
    File Type: ET_EXEC (Executable) (2)
    Machine: EM_ARM (ARM)

    Image Entry point: Not specified
    Flags: EF_ARM_ABI_FLOAT_SOFT (0x05000200)

    ARM ELF revision: 5 (ABI version 2)

    Conforms to Soft float procedure-call standard

    Built with
    Component: ARM Compiler 6.16 Tool: armlink [5dfeaa00]

    Header size: 52 bytes (0x34)
    Program header entry size: 32 bytes (0x20)
    Section header entry size: 40 bytes (0x28)

    Program header entries: 2
    Section header entries: 17

    Program header offset: 42892 (0x0000a78c)
    Section header offset: 42956 (0x0000a7cc)

    Section header string table index: 16

========================================================================

** Program header #0 (PT_LOAD) [PF_X + PF_W + PF_R + PF_ARM_SB + PF_ARM_PI]
    Size : 4536 bytes (4532 bytes in file)
    Virtual address: 0x00000000 (Alignment 4)


====================================

** Program header #1 (PT_LOAD) [PF_X + PF_R + PF_ARM_PI]
    Size : 4256 bytes
    Virtual address: 0x000011b4 (Alignment 4)


========================================================================

** Section #1 'PrgCode' (SHT_PROGBITS) [SHF_ALLOC + SHF_EXECINSTR]
    Size   : 4520 bytes (alignment 4)
    Address: 0x00000000

    $t.0
    Init
        0x00000000:    2a01        .*      CMP      r2,#1
        0x00000002:    d170        p.      BNE      0xe6 ; Init + 230
        0x00000004:    b570        p.      PUSH     {r4-r6,lr}
        0x00000006:    b082        ..      SUB      sp,sp,#8
        0x00000008:    f3ef8010    ....    MRS      r0,PRIMASK
        0x0000000c:    b672        r.      CPSID    i
        0x0000000e:    f000ffd3    ....    BL       switchTo8MHz ; 0xfb8
        0x00000012:    f2407020    @. p    MOVW     r0,#0x720
        0x00000016:    f2c40000    ....    MOVT     r0,#0x4000
        0x0000001a:    2155        U!      MOVS     r1,#0x55
        0x0000001c:    6001        .`      STR      r1,[r0,#0]
        0x0000001e:    f04f31ff    O..1    MOV      r1,#0xffffffff
        0x00000022:    6041        A`      STR      r1,[r0,#4]
        0x00000024:    6081        .`      STR      r1,[r0,#8]
        0x00000026:    f3bf8f4f    ..O.    DSB      
        0x0000002a:    f3bf8f6f    ..o.    ISB      
        0x0000002e:    bf00        ..      NOP      
        0x00000030:    2500        .%      MOVS     r5,#0
        0x00000032:    bf00        ..      NOP      
        0x00000034:    6045        E`      STR      r5,[r0,#4]
        0x00000036:    6085        .`      STR      r5,[r0,#8]
        0x00000038:    6005        .`      STR      r5,[r0,#0]
        0x0000003a:    f000fecb    ....    BL       SystemInit ; 0xdd4
        0x0000003e:    2410        .$      MOVS     r4,#0x10
        0x00000040:    f2c4040a    ....    MOVT     r4,#0x400a
        0x00000044:    4620         F      MOV      r0,r4
        0x00000046:    2105        .!      MOVS     r1,#5
        0x00000048:    2202        ."      MOVS     r2,#2
        0x0000004a:    2300        .#      MOVS     r3,#0
        0x0000004c:    f000f8ea    ....    BL       PORT_Init ; 0x224
        0x00000050:    4620         F      MOV      r0,r4
        0x00000052:    2104        .!      MOVS     r1,#4
        0x00000054:    2202        ."      MOVS     r2,#2
        0x00000056:    2300        .#      MOVS     r3,#0
        0x00000058:    f000f8e4    ....    BL       PORT_Init ; 0x224
        0x0000005c:    4620         F      MOV      r0,r4
        0x0000005e:    2103        .!      MOVS     r1,#3
        0x00000060:    2202        ."      MOVS     r2,#2
        0x00000062:    2301        .#      MOVS     r3,#1
        0x00000064:    2601        .&      MOVS     r6,#1
        0x00000066:    f000f8dd    ....    BL       PORT_Init ; 0x224
        0x0000006a:    4620         F      MOV      r0,r4
        0x0000006c:    2102        .!      MOVS     r1,#2
        0x0000006e:    2202        ."      MOVS     r2,#2
        0x00000070:    2301        .#      MOVS     r3,#1
        0x00000072:    f000f8d7    ....    BL       PORT_Init ; 0x224
        0x00000076:    4620         F      MOV      r0,r4
        0x00000078:    2101        .!      MOVS     r1,#1
        0x0000007a:    2202        ."      MOVS     r2,#2
        0x0000007c:    2301        .#      MOVS     r3,#1
        0x0000007e:    f000f8d1    ....    BL       PORT_Init ; 0x224
        0x00000082:    4620         F      MOV      r0,r4
        0x00000084:    2100        .!      MOVS     r1,#0
        0x00000086:    2202        ."      MOVS     r2,#2
        0x00000088:    2301        .#      MOVS     r3,#1
        0x0000008a:    f000f8cb    ....    BL       PORT_Init ; 0x224
        0x0000008e:    f8d40100    ....    LDR      r0,[r4,#0x100]
        0x00000092:    4669        iF      MOV      r1,sp
        0x00000094:    f0400001    @...    ORR      r0,r0,#1
        0x00000098:    f8c40100    ....    STR      r0,[r4,#0x100]
        0x0000009c:    2017        .       MOVS     r0,#0x17
        0x0000009e:    f2c00003    ....    MOVT     r0,#3
        0x000000a2:    9000        ..      STR      r0,[sp,#0]
        0x000000a4:    f04f40f0    O..@    MOV      r0,#0x78000000
        0x000000a8:    f8ad6004    ...`    STRH     r6,[sp,#4]
        0x000000ac:    f88d5006    ...P    STRB     r5,[sp,#6]
        0x000000b0:    f000f9f6    ....    BL       QSPI_Init ; 0x4a0
        0x000000b4:    f04f40f0    O..@    MOV      r0,#0x78000000
        0x000000b8:    f000fa54    ..T.    BL       QSPI_Open ; 0x564
        0x000000bc:    f04f40f0    O..@    MOV      r0,#0x78000000
        0x000000c0:    f000fd76    ..v.    BL       QSPI_QuadState ; 0xbb0
        0x000000c4:    b940        @.      CBNZ     r0,0xd8 ; Init + 216
        0x000000c6:    f04f40f0    O..@    MOV      r0,#0x78000000
        0x000000ca:    2101        .!      MOVS     r1,#1
        0x000000cc:    f000fd78    ..x.    BL       QSPI_QuadSwitch ; 0xbc0
        0x000000d0:    f04f40f0    O..@    MOV      r0,#0x78000000
        0x000000d4:    f000fd6c    ..l.    BL       QSPI_QuadState ; 0xbb0
        0x000000d8:    2800        .(      CMP      r0,#0
        0x000000da:    b002        ..      ADD      sp,sp,#8
        0x000000dc:    e8bd4070    ..p@    POP      {r4-r6,lr}
        0x000000e0:    bf04        ..      ITT      EQ
        0x000000e2:    2001        .       MOVEQ    r0,#1
        0x000000e4:    4770        pG      BXEQ     lr
        0x000000e6:    2000        .       MOVS     r0,#0
        0x000000e8:    4770        pG      BX       lr
        0x000000ea:    bf00        ..      NOP      
    UnInit
        0x000000ec:    2000        .       MOVS     r0,#0
        0x000000ee:    4770        pG      BX       lr
    EraseSector
        0x000000f0:    f1004110    ...A    ADD      r1,r0,#0x90000000
        0x000000f4:    f1b17f80    ....    CMP      r1,#0x1000000
        0x000000f8:    bf84        ..      ITT      HI
        0x000000fa:    2001        .       MOVHI    r0,#1
        0x000000fc:    4770        pG      BXHI     lr
        0x000000fe:    b580        ..      PUSH     {r7,lr}
        0x00000100:    f04f40f0    O..@    MOV      r0,#0x78000000
        0x00000104:    2240        @"      MOVS     r2,#0x40
        0x00000106:    2301        .#      MOVS     r3,#1
        0x00000108:    f000fa70    ..p.    BL       QSPI_Erase_ ; 0x5ec
        0x0000010c:    2000        .       MOVS     r0,#0
        0x0000010e:    bd80        ..      POP      {r7,pc}
    ProgramPage
        0x00000110:    e92d4df0    -..M    PUSH     {r4-r8,r10,r11,lr}
        0x00000114:    b082        ..      SUB      sp,sp,#8
        0x00000116:    f1004610    ...F    ADD      r6,r0,#0x90000000
        0x0000011a:    f1b67f80    ....    CMP      r6,#0x1000000
        0x0000011e:    bf82        ..      ITTT     HI
        0x00000120:    2001        .       MOVHI    r0,#1
        0x00000122:    b002        ..      ADDHI    sp,sp,#8
        0x00000124:    e8bd8df0    ....    POPHI    {r4-r8,r10,r11,pc}
        0x00000128:    460c        .F      MOV      r4,r1
        0x0000012a:    b1f1        ..      CBZ      r1,0x16a ; ProgramPage + 90
        0x0000012c:    4693        .F      MOV      r11,r2
        0x0000012e:    2700        .'      MOVS     r7,#0
        0x00000130:    f04f0801    O...    MOV      r8,#1
        0x00000134:    f04f0a04    O...    MOV      r10,#4
        0x00000138:    4625        %F      MOV      r5,r4
        0x0000013a:    bf00        ..      NOP      
        0x0000013c:    19f1        ..      ADDS     r1,r6,r7
        0x0000013e:    eb0b0207    ....    ADD      r2,r11,r7
        0x00000142:    462b        +F      MOV      r3,r5
        0x00000144:    f04f40f0    O..@    MOV      r0,#0x78000000
        0x00000148:    f5b57f80    ....    CMP      r5,#0x100
        0x0000014c:    bf28        (.      IT       CS
        0x0000014e:    f44f7380    O..s    MOVCS    r3,#0x100
        0x00000152:    f8cda000    ....    STR      r10,[sp,#0]
        0x00000156:    f8cd8004    ....    STR      r8,[sp,#4]
        0x0000015a:    f000fadb    ....    BL       QSPI_Write_ ; 0x714
        0x0000015e:    f5077780    ...w    ADD      r7,r7,#0x100
        0x00000162:    42a7        .B      CMP      r7,r4
        0x00000164:    f5a57580    ...u    SUB      r5,r5,#0x100
        0x00000168:    d3e8        ..      BCC      0x13c ; ProgramPage + 44
        0x0000016a:    2000        .       MOVS     r0,#0
        0x0000016c:    b002        ..      ADD      sp,sp,#8
        0x0000016e:    e8bd8df0    ....    POP      {r4-r8,r10,r11,pc}
        0x00000172:    bf00        ..      NOP      
    Verify
        0x00000174:    b5f0        ..      PUSH     {r4-r7,lr}
        0x00000176:    b083        ..      SUB      sp,sp,#0xc
        0x00000178:    4616        .F      MOV      r6,r2
        0x0000017a:    f1004210    ...B    ADD      r2,r0,#0x90000000
        0x0000017e:    4604        .F      MOV      r4,r0
        0x00000180:    f1b27f80    ....    CMP      r2,#0x1000000
        0x00000184:    d831        1.      BHI      0x1ea ; Verify + 118
        0x00000186:    2700        .'      MOVS     r7,#0
        0x00000188:    460d        .F      MOV      r5,r1
        0x0000018a:    f2c20701    ....    MOVT     r7,#0x2001
        0x0000018e:    f04f0c01    O...    MOV      r12,#1
        0x00000192:    2004        .       MOVS     r0,#4
        0x00000194:    e9cdc000    ....    STRD     r12,r0,[sp,#0]
        0x00000198:    f04f40f0    O..@    MOV      r0,#0x78000000
        0x0000019c:    4611        .F      MOV      r1,r2
        0x0000019e:    463a        :F      MOV      r2,r7
        0x000001a0:    462b        +F      MOV      r3,r5
        0x000001a2:    f8cdc008    ....    STR      r12,[sp,#8]
        0x000001a6:    f000fb55    ..U.    BL       QSPI_Read_ ; 0x854
        0x000001aa:    2d00        .-      CMP      r5,#0
        0x000001ac:    4628        (F      MOV      r0,r5
        0x000001ae:    bf18        ..      IT       NE
        0x000001b0:    2001        .       MOVNE    r0,#1
        0x000001b2:    d016        ..      BEQ      0x1e2 ; Verify + 110
        0x000001b4:    7839        9x      LDRB     r1,[r7,#0]
        0x000001b6:    7832        2x      LDRB     r2,[r6,#0]
        0x000001b8:    4291        .B      CMP      r1,r2
        0x000001ba:    f04f0100    O...    MOV      r1,#0
        0x000001be:    d10e        ..      BNE      0x1de ; Verify + 106
        0x000001c0:    2101        .!      MOVS     r1,#1
        0x000001c2:    bf00        ..      NOP      
        0x000001c4:    42a9        .B      CMP      r1,r5
        0x000001c6:    f04f0000    O...    MOV      r0,#0
        0x000001ca:    bf38        8.      IT       CC
        0x000001cc:    2001        .       MOVCC    r0,#1
        0x000001ce:    428d        .B      CMP      r5,r1
        0x000001d0:    d007        ..      BEQ      0x1e2 ; Verify + 110
        0x000001d2:    5c7a        z\      LDRB     r2,[r7,r1]
        0x000001d4:    5c73        s\      LDRB     r3,[r6,r1]
        0x000001d6:    3101        .1      ADDS     r1,#1
        0x000001d8:    429a        .B      CMP      r2,r3
        0x000001da:    d0f3        ..      BEQ      0x1c4 ; Verify + 80
        0x000001dc:    3901        .9      SUBS     r1,#1
        0x000001de:    4421        !D      ADD      r1,r1,r4
        0x000001e0:    e7ff        ..      B        0x1e2 ; Verify + 110
        0x000001e2:    2800        .(      CMP      r0,#0
        0x000001e4:    bf08        ..      IT       EQ
        0x000001e6:    1929        ).      ADDEQ    r1,r5,r4
        0x000001e8:    460c        .F      MOV      r4,r1
        0x000001ea:    4620         F      MOV      r0,r4
        0x000001ec:    b003        ..      ADD      sp,sp,#0xc
        0x000001ee:    bdf0        ..      POP      {r4-r7,pc}
    Read
        0x000001f0:    b5b0        ..      PUSH     {r4,r5,r7,lr}
        0x000001f2:    b084        ..      SUB      sp,sp,#0x10
        0x000001f4:    f1004310    ...C    ADD      r3,r0,#0x90000000
        0x000001f8:    4604        .F      MOV      r4,r0
        0x000001fa:    f1b37f80    ....    CMP      r3,#0x1000000
        0x000001fe:    d80e        ..      BHI      0x21e ; Read + 46
        0x00000200:    460d        .F      MOV      r5,r1
        0x00000202:    f04f0c01    O...    MOV      r12,#1
        0x00000206:    2004        .       MOVS     r0,#4
        0x00000208:    e9cdc000    ....    STRD     r12,r0,[sp,#0]
        0x0000020c:    f04f40f0    O..@    MOV      r0,#0x78000000
        0x00000210:    4619        .F      MOV      r1,r3
        0x00000212:    462b        +F      MOV      r3,r5
        0x00000214:    f8cdc008    ....    STR      r12,[sp,#8]
        0x00000218:    f000fb1c    ....    BL       QSPI_Read_ ; 0x854
        0x0000021c:    442c        ,D      ADD      r4,r4,r5
        0x0000021e:    4620         F      MOV      r0,r4
        0x00000220:    b004        ..      ADD      sp,sp,#0x10
        0x00000222:    bdb0        ..      POP      {r4,r5,r7,pc}
    PORT_Init
        0x00000224:    b570        p.      PUSH     {r4-r6,lr}
        0x00000226:    2a64        d*      CMP      r2,#0x64
        0x00000228:    d323        #.      BCC      0x272 ; PORT_Init + 78
        0x0000022a:    2905        .)      CMP      r1,#5
        0x0000022c:    f1020c9c    ....    ADD      r12,r2,#0x9c
        0x00000230:    d804        ..      BHI      0x23c ; PORT_Init + 24
        0x00000232:    eb010e81    ....    ADD      lr,r1,r1,LSL #2
        0x00000236:    f50062e0    ...b    ADD      r2,r0,#0x700
        0x0000023a:    e00b        ..      B        0x254 ; PORT_Init + 48
        0x0000023c:    eb010281    ....    ADD      r2,r1,r1,LSL #2
        0x00000240:    290b        .)      CMP      r1,#0xb
        0x00000242:    bf87        ..      ITTEE    HI
        0x00000244:    f1a20e3c    ..<.    SUBHI    lr,r2,#0x3c
        0x00000248:    f50062e1    ...b    ADDHI    r2,r0,#0x708
        0x0000024c:    f1a20e1e    ....    SUBLS    lr,r2,#0x1e
        0x00000250:    f2007204    ...r    ADDLS    r2,r0,#0x704
        0x00000254:    241f        .$      MOVS     r4,#0x1f
        0x00000256:    6815        .h      LDR      r5,[r2,#0]
        0x00000258:    fa04f40e    ....    LSL      r4,r4,lr
        0x0000025c:    ea250404    %...    BIC      r4,r5,r4
        0x00000260:    6014        .`      STR      r4,[r2,#0]
        0x00000262:    fa5ff58c    _...    UXTB     r5,r12
        0x00000266:    6814        .h      LDR      r4,[r2,#0]
        0x00000268:    fa05f50e    ....    LSL      r5,r5,lr
        0x0000026c:    4325        %C      ORRS     r5,r5,r4
        0x0000026e:    6015        .`      STR      r5,[r2,#0]
        0x00000270:    2201        ."      MOVS     r2,#1
        0x00000272:    f06f051f    o...    MVN      r5,#0x1f
        0x00000276:    eb050681    ....    ADD      r6,r5,r1,LSL #2
        0x0000027a:    4604        .F      MOV      r4,r0
        0x0000027c:    2908        .)      CMP      r1,#8
        0x0000027e:    bf38        8.      IT       CC
        0x00000280:    008e        ..      LSLCC    r6,r1,#2
        0x00000282:    f04f0c0f    O...    MOV      r12,#0xf
        0x00000286:    bf28        (.      IT       CS
        0x00000288:    3404        .4      ADDCS    r4,#4
        0x0000028a:    f8d4e000    ....    LDR      lr,[r4,#0]
        0x0000028e:    fa0cf506    ....    LSL      r5,r12,r6
        0x00000292:    ea2e0505    ....    BIC      r5,lr,r5
        0x00000296:    6025        %`      STR      r5,[r4,#0]
        0x00000298:    6825        %h      LDR      r5,[r4,#0]
        0x0000029a:    40b2        .@      LSLS     r2,r2,r6
        0x0000029c:    432a        *C      ORRS     r2,r2,r5
        0x0000029e:    6022        "`      STR      r2,[r4,#0]
        0x000002a0:    2201        ."      MOVS     r2,#1
        0x000002a2:    fa02f101    ....    LSL      r1,r2,r1
        0x000002a6:    2b00        .+      CMP      r3,#0
        0x000002a8:    f8d02300    ...#    LDR      r2,[r0,#0x300]
        0x000002ac:    bf0c        ..      ITE      EQ
        0x000002ae:    ea220101    "...    BICEQ    r1,r2,r1
        0x000002b2:    4311        .C      ORRNE    r1,r1,r2
        0x000002b4:    f8c01300    ....    STR      r1,[r0,#0x300]
        0x000002b8:    bd70        p.      POP      {r4-r6,pc}
        0x000002ba:    0000        ..      MOVS     r0,r0
    GPIO_Init
        0x000002bc:    e92d45f0    -..E    PUSH     {r4-r8,r10,lr}
        0x000002c0:    b081        ..      SUB      sp,sp,#4
        0x000002c2:    4607        .F      MOV      r7,r0
        0x000002c4:    f64070ff    @..p    MOV      r0,#0xfff
        0x000002c8:    f2c40004    ....    MOVT     r0,#0x4004
        0x000002cc:    2400        .$      MOVS     r4,#0
        0x000002ce:    4698        .F      MOV      r8,r3
        0x000002d0:    4692        .F      MOV      r10,r2
        0x000002d2:    4287        .B      CMP      r7,r0
        0x000002d4:    460d        .F      MOV      r5,r1
        0x000002d6:    f2c4040a    ....    MOVT     r4,#0x400a
        0x000002da:    dd1a        ..      BLE      0x312 ; GPIO_Init + 86
        0x000002dc:    f2410000    A...    MOVW     r0,#0x1000
        0x000002e0:    f2c40004    ....    MOVT     r0,#0x4004
        0x000002e4:    4287        .B      CMP      r7,r0
        0x000002e6:    d028        (.      BEQ      0x33a ; GPIO_Init + 126
        0x000002e8:    f6410000    A...    MOVW     r0,#0x1800
        0x000002ec:    f2c40004    ....    MOVT     r0,#0x4004
        0x000002f0:    4287        .B      CMP      r7,r0
        0x000002f2:    d02b        +.      BEQ      0x34c ; GPIO_Init + 144
        0x000002f4:    f2460000    F...    MOVW     r0,#0x6000
        0x000002f8:    f2c4000a    ....    MOVT     r0,#0x400a
        0x000002fc:    4287        .B      CMP      r7,r0
        0x000002fe:    d135        5.      BNE      0x36c ; GPIO_Init + 176
        0x00000300:    2008        .       MOVS     r0,#8
        0x00000302:    f2c40000    ....    MOVT     r0,#0x4000
        0x00000306:    6841        Ah      LDR      r1,[r0,#4]
        0x00000308:    3440        @4      ADDS     r4,r4,#0x40
        0x0000030a:    f4416100    A..a    ORR      r1,r1,#0x800
        0x0000030e:    6041        A`      STR      r1,[r0,#4]
        0x00000310:    e02c        ,.      B        0x36c ; GPIO_Init + 176
        0x00000312:    2000        .       MOVS     r0,#0
        0x00000314:    f2c40004    ....    MOVT     r0,#0x4004
        0x00000318:    4287        .B      CMP      r7,r0
        0x0000031a:    d020         .      BEQ      0x35e ; GPIO_Init + 162
        0x0000031c:    f6400000    @...    MOVW     r0,#0x800
        0x00000320:    f2c40004    ....    MOVT     r0,#0x4004
        0x00000324:    4287        .B      CMP      r7,r0
        0x00000326:    d121        !.      BNE      0x36c ; GPIO_Init + 176
        0x00000328:    2008        .       MOVS     r0,#8
        0x0000032a:    f2c40000    ....    MOVT     r0,#0x4000
        0x0000032e:    6801        .h      LDR      r1,[r0,#0]
        0x00000330:    3410        .4      ADDS     r4,r4,#0x10
        0x00000332:    f0410102    A...    ORR      r1,r1,#2
        0x00000336:    6001        .`      STR      r1,[r0,#0]
        0x00000338:    e018        ..      B        0x36c ; GPIO_Init + 176
        0x0000033a:    2008        .       MOVS     r0,#8
        0x0000033c:    f2c40000    ....    MOVT     r0,#0x4000
        0x00000340:    6801        .h      LDR      r1,[r0,#0]
        0x00000342:    3420         4      ADDS     r4,r4,#0x20
        0x00000344:    f0410104    A...    ORR      r1,r1,#4
        0x00000348:    6001        .`      STR      r1,[r0,#0]
        0x0000034a:    e00f        ..      B        0x36c ; GPIO_Init + 176
        0x0000034c:    2008        .       MOVS     r0,#8
        0x0000034e:    f2c40000    ....    MOVT     r0,#0x4000
        0x00000352:    6801        .h      LDR      r1,[r0,#0]
        0x00000354:    3430        04      ADDS     r4,r4,#0x30
        0x00000356:    f0410108    A...    ORR      r1,r1,#8
        0x0000035a:    6001        .`      STR      r1,[r0,#0]
        0x0000035c:    e006        ..      B        0x36c ; GPIO_Init + 176
        0x0000035e:    2008        .       MOVS     r0,#8
        0x00000360:    f2c40000    ....    MOVT     r0,#0x4000
        0x00000364:    6801        .h      LDR      r1,[r0,#0]
        0x00000366:    f0410101    A...    ORR      r1,r1,#1
        0x0000036a:    6001        .`      STR      r1,[r0,#0]
        0x0000036c:    4620         F      MOV      r0,r4
        0x0000036e:    4629        )F      MOV      r1,r5
        0x00000370:    2200        ."      MOVS     r2,#0
        0x00000372:    2301        .#      MOVS     r3,#1
        0x00000374:    2601        .&      MOVS     r6,#1
        0x00000376:    f7ffff55    ..U.    BL       PORT_Init ; 0x224
        0x0000037a:    fa06f005    ....    LSL      r0,r6,r5
        0x0000037e:    6879        yh      LDR      r1,[r7,#4]
        0x00000380:    f1ba0f01    ....    CMP      r10,#1
        0x00000384:    bf14        ..      ITE      NE
        0x00000386:    ea210000    !...    BICNE    r0,r1,r0
        0x0000038a:    4308        .C      ORREQ    r0,r0,r1
        0x0000038c:    6078        x`      STR      r0,[r7,#4]
        0x0000038e:    2101        .!      MOVS     r1,#1
        0x00000390:    9808        ..      LDR      r0,[sp,#0x20]
        0x00000392:    40a9        .@      LSLS     r1,r1,r5
        0x00000394:    f8d42100    ...!    LDR      r2,[r4,#0x100]
        0x00000398:    f1b80f01    ....    CMP      r8,#1
        0x0000039c:    bf14        ..      ITE      NE
        0x0000039e:    ea220101    "...    BICNE    r1,r2,r1
        0x000003a2:    4311        .C      ORREQ    r1,r1,r2
        0x000003a4:    2201        ."      MOVS     r2,#1
        0x000003a6:    f8c41100    ....    STR      r1,[r4,#0x100]
        0x000003aa:    2801        .(      CMP      r0,#1
        0x000003ac:    fa02f005    ....    LSL      r0,r2,r5
        0x000003b0:    f8d42200    ..."    LDR      r2,[r4,#0x200]
        0x000003b4:    bf14        ..      ITE      NE
        0x000003b6:    ea220000    "...    BICNE    r0,r2,r0
        0x000003ba:    4310        .C      ORREQ    r0,r0,r2
        0x000003bc:    9909        ..      LDR      r1,[sp,#0x24]
        0x000003be:    f8c40200    ....    STR      r0,[r4,#0x200]
        0x000003c2:    2001        .       MOVS     r0,#1
        0x000003c4:    40a8        .@      LSLS     r0,r0,r5
        0x000003c6:    2901        .)      CMP      r1,#1
        0x000003c8:    f8d41400    ....    LDR      r1,[r4,#0x400]
        0x000003cc:    bf0c        ..      ITE      EQ
        0x000003ce:    4308        .C      ORREQ    r0,r0,r1
        0x000003d0:    ea210000    !...    BICNE    r0,r1,r0
        0x000003d4:    f8c40400    ....    STR      r0,[r4,#0x400]
        0x000003d8:    b001        ..      ADD      sp,sp,#4
        0x000003da:    e8bd85f0    ....    POP      {r4-r8,r10,pc}
        0x000003de:    bf00        ..      NOP      
    GPIO_WriteBit
        0x000003e0:    eb000081    ....    ADD      r0,r0,r1,LSL #2
        0x000003e4:    6402        .d      STR      r2,[r0,#0x40]
        0x000003e6:    4770        pG      BX       lr
    GPIO_SetBit
        0x000003e8:    eb000081    ....    ADD      r0,r0,r1,LSL #2
        0x000003ec:    2101        .!      MOVS     r1,#1
        0x000003ee:    6401        .d      STR      r1,[r0,#0x40]
        0x000003f0:    4770        pG      BX       lr
        0x000003f2:    bf00        ..      NOP      
    GPIO_ClrBit
        0x000003f4:    eb000081    ....    ADD      r0,r0,r1,LSL #2
        0x000003f8:    2100        .!      MOVS     r1,#0
        0x000003fa:    6401        .d      STR      r1,[r0,#0x40]
        0x000003fc:    4770        pG      BX       lr
        0x000003fe:    bf00        ..      NOP      
    GPIO_InvBit
        0x00000400:    eb000081    ....    ADD      r0,r0,r1,LSL #2
        0x00000404:    6c01        .l      LDR      r1,[r0,#0x40]
        0x00000406:    f1c10101    ....    RSB      r1,r1,#1
        0x0000040a:    6401        .d      STR      r1,[r0,#0x40]
        0x0000040c:    4770        pG      BX       lr
        0x0000040e:    bf00        ..      NOP      
    GPIO_GetBit
        0x00000410:    eb000081    ....    ADD      r0,r0,r1,LSL #2
        0x00000414:    6c00        .l      LDR      r0,[r0,#0x40]
        0x00000416:    4770        pG      BX       lr
    GPIO_WriteBits
        0x00000418:    b580        ..      PUSH     {r7,lr}
        0x0000041a:    f1c20c10    ....    RSB      r12,r2,#0x10
        0x0000041e:    f64f72ff    O..r    MOV      r2,#0xffff
        0x00000422:    fa22fc0c    "...    LSR      r12,r2,r12
        0x00000426:    f8d0e000    ....    LDR      lr,[r0,#0]
        0x0000042a:    fa0cf201    ....    LSL      r2,r12,r1
        0x0000042e:    ea2e0202    ....    BIC      r2,lr,r2
        0x00000432:    6002        .`      STR      r2,[r0,#0]
        0x00000434:    6802        .h      LDR      r2,[r0,#0]
        0x00000436:    fa03f101    ....    LSL      r1,r3,r1
        0x0000043a:    4311        .C      ORRS     r1,r1,r2
        0x0000043c:    6001        .`      STR      r1,[r0,#0]
        0x0000043e:    bd80        ..      POP      {r7,pc}
    GPIO_SetBits
        0x00000440:    f1c20210    ....    RSB      r2,r2,#0x10
        0x00000444:    f64f73ff    O..s    MOV      r3,#0xffff
        0x00000448:    fa23f202    #...    LSR      r2,r3,r2
        0x0000044c:    6803        .h      LDR      r3,[r0,#0]
        0x0000044e:    fa02f101    ....    LSL      r1,r2,r1
        0x00000452:    4319        .C      ORRS     r1,r1,r3
        0x00000454:    6001        .`      STR      r1,[r0,#0]
        0x00000456:    4770        pG      BX       lr
    GPIO_ClrBits
        0x00000458:    f1c20210    ....    RSB      r2,r2,#0x10
        0x0000045c:    f64f73ff    O..s    MOV      r3,#0xffff
        0x00000460:    fa23f202    #...    LSR      r2,r3,r2
        0x00000464:    6803        .h      LDR      r3,[r0,#0]
        0x00000466:    fa02f101    ....    LSL      r1,r2,r1
        0x0000046a:    ea230101    #...    BIC      r1,r3,r1
        0x0000046e:    6001        .`      STR      r1,[r0,#0]
        0x00000470:    4770        pG      BX       lr
        0x00000472:    bf00        ..      NOP      
    GPIO_InvBits
        0x00000474:    f1c20210    ....    RSB      r2,r2,#0x10
        0x00000478:    f64f73ff    O..s    MOV      r3,#0xffff
        0x0000047c:    fa23f202    #...    LSR      r2,r3,r2
        0x00000480:    6803        .h      LDR      r3,[r0,#0]
        0x00000482:    fa02f101    ....    LSL      r1,r2,r1
        0x00000486:    4059        Y@      EORS     r1,r1,r3
        0x00000488:    6001        .`      STR      r1,[r0,#0]
        0x0000048a:    4770        pG      BX       lr
    GPIO_GetBits
        0x0000048c:    6b00        .k      LDR      r0,[r0,#0x30]
        0x0000048e:    f1c20210    ....    RSB      r2,r2,#0x10
        0x00000492:    f64f73ff    O..s    MOV      r3,#0xffff
        0x00000496:    fa23f202    #...    LSR      r2,r3,r2
        0x0000049a:    40c8        .@      LSRS     r0,r0,r1
        0x0000049c:    4010        .@      ANDS     r0,r0,r2
        0x0000049e:    4770        pG      BX       lr
    QSPI_Init
        0x000004a0:    b5f0        ..      PUSH     {r4-r7,lr}
        0x000004a2:    b081        ..      SUB      sp,sp,#4
        0x000004a4:    f6400700    @...    MOVW     r7,#0x800
        0x000004a8:    4604        .F      MOV      r4,r0
        0x000004aa:    f1b04ff0    ...O    CMP      r0,#0x78000000
        0x000004ae:    460d        .F      MOV      r5,r1
        0x000004b0:    f6c70700    ....    MOVT     r7,#0x7800
        0x000004b4:    d004        ..      BEQ      0x4c0 ; QSPI_Init + 32
        0x000004b6:    42bc        .B      CMP      r4,r7
        0x000004b8:    d10a        ..      BNE      0x4d0 ; QSPI_Init + 48
        0x000004ba:    f44f4000    O..@    MOV      r0,#0x8000
        0x000004be:    e001        ..      B        0x4c4 ; QSPI_Init + 36
        0x000004c0:    f44f4080    O..@    MOV      r0,#0x4000
        0x000004c4:    2108        .!      MOVS     r1,#8
        0x000004c6:    f2c40100    ....    MOVT     r1,#0x4000
        0x000004ca:    680a        .h      LDR      r2,[r1,#0]
        0x000004cc:    4310        .C      ORRS     r0,r0,r2
        0x000004ce:    6008        .`      STR      r0,[r1,#0]
        0x000004d0:    4620         F      MOV      r0,r4
        0x000004d2:    f000f835    ..5.    BL       QSPI_Close ; 0x540
        0x000004d6:    8869        i.      LDRH     r1,[r5,#2]
        0x000004d8:    79aa        .y      LDRB     r2,[r5,#6]
        0x000004da:    0609        ..      LSLS     r1,r1,#24
        0x000004dc:    ea414102    A..A    ORR      r1,r1,r2,LSL #16
        0x000004e0:    f6400608    @...    MOV      r6,#0x808
        0x000004e4:    f6cf7600    ...v    MOVT     r6,#0xff00
        0x000004e8:    4431        1D      ADD      r1,r1,r6
        0x000004ea:    7928        (y      LDRB     r0,[r5,#4]
        0x000004ec:    796b        ky      LDRB     r3,[r5,#5]
        0x000004ee:    6021        !`      STR      r1,[r4,#0]
        0x000004f0:    8829        ).      LDRH     r1,[r5,#0]
        0x000004f2:    ea404001    @..@    ORR      r0,r0,r1,LSL #16
        0x000004f6:    f5007040    ..@p    ADD      r0,r0,#0x300
        0x000004fa:    6060        ``      STR      r0,[r4,#4]
        0x000004fc:    ea4f00d1    O...    LSR      r0,r1,#3
        0x00000500:    f240010c    @...    MOVW     r1,#0xc
        0x00000504:    f2c00100    ....    MOVT     r1,#0
        0x00000508:    f8090001    ....    STRB     r0,[r9,r1]
        0x0000050c:    f003000f    ....    AND      r0,r3,#0xf
        0x00000510:    6420         d      STR      r0,[r4,#0x40]
        0x00000512:    f04f0064    O.d.    MOV      r0,#0x64
        0x00000516:    6320         c      STR      r0,[r4,#0x30]
        0x00000518:    f04f001b    O...    MOV      r0,#0x1b
        0x0000051c:    60e0        .`      STR      r0,[r4,#0xc]
        0x0000051e:    b162        b.      CBZ      r2,0x53a ; QSPI_Init + 154
        0x00000520:    42bc        .B      CMP      r4,r7
        0x00000522:    d007        ..      BEQ      0x534 ; QSPI_Init + 148
        0x00000524:    f1b44ff0    ...O    CMP      r4,#0x78000000
        0x00000528:    d107        ..      BNE      0x53a ; QSPI_Init + 154
        0x0000052a:    2017        .       MOVS     r0,#0x17
        0x0000052c:    f000f80e    ....    BL       __NVIC_EnableIRQ ; 0x54c
        0x00000530:    b001        ..      ADD      sp,sp,#4
        0x00000532:    bdf0        ..      POP      {r4-r7,pc}
        0x00000534:    2018        .       MOVS     r0,#0x18
        0x00000536:    f000f809    ....    BL       __NVIC_EnableIRQ ; 0x54c
        0x0000053a:    b001        ..      ADD      sp,sp,#4
        0x0000053c:    bdf0        ..      POP      {r4-r7,pc}
        0x0000053e:    bf00        ..      NOP      
    QSPI_Close
        0x00000540:    6801        .h      LDR      r1,[r0,#0]
        0x00000542:    f0210101    !...    BIC      r1,r1,#1
        0x00000546:    6001        .`      STR      r1,[r0,#0]
        0x00000548:    4770        pG      BX       lr
        0x0000054a:    bf00        ..      NOP      
    __NVIC_EnableIRQ
        0x0000054c:    f000001f    ....    AND      r0,r0,#0x1f
        0x00000550:    2101        .!      MOVS     r1,#1
        0x00000552:    fa01f000    ....    LSL      r0,r1,r0
        0x00000556:    f24e1100    N...    MOVW     r1,#0xe100
        0x0000055a:    f2ce0100    ....    MOVT     r1,#0xe000
        0x0000055e:    6008        .`      STR      r0,[r1,#0]
        0x00000560:    4770        pG      BX       lr
        0x00000562:    bf00        ..      NOP      
    QSPI_Open
        0x00000564:    6801        .h      LDR      r1,[r0,#0]
        0x00000566:    f0410101    A...    ORR      r1,r1,#1
        0x0000056a:    6001        .`      STR      r1,[r0,#0]
        0x0000056c:    4770        pG      BX       lr
        0x0000056e:    bf00        ..      NOP      
    QSPI_CmdStructClear
        0x00000570:    2100        .!      MOVS     r1,#0
        0x00000572:    8001        ..      STRH     r1,[r0,#0]
        0x00000574:    6041        A`      STR      r1,[r0,#4]
        0x00000576:    8101        ..      STRH     r1,[r0,#8]
        0x00000578:    e9c01103    ....    STRD     r1,r1,[r0,#0xc]
        0x0000057c:    6141        Aa      STR      r1,[r0,#0x14]
        0x0000057e:    7601        .v      STRB     r1,[r0,#0x18]
        0x00000580:    4770        pG      BX       lr
        0x00000582:    bf00        ..      NOP      
    QSPI_Command
        0x00000584:    b5b0        ..      PUSH     {r4,r5,r7,lr}
        0x00000586:    f892c010    ....    LDRB     r12,[r2,#0x10]
        0x0000058a:    f1bc0f00    ....    CMP      r12,#0
        0x0000058e:    bf1c        ..      ITT      NE
        0x00000590:    68d3        .h      LDRNE    r3,[r2,#0xc]
        0x00000592:    61c3        .a      STRNE    r3,[r0,#0x1c]
        0x00000594:    f892e013    ....    LDRB     lr,[r2,#0x13]
        0x00000598:    f1be0f00    ....    CMP      lr,#0
        0x0000059c:    d002        ..      BEQ      0x5a4 ; QSPI_Command + 32
        0x0000059e:    6953        Si      LDR      r3,[r2,#0x14]
        0x000005a0:    3b01        .;      SUBS     r3,#1
        0x000005a2:    6103        .a      STR      r3,[r0,#0x10]
        0x000005a4:    ea4f338c    O..3    LSL      r3,r12,#14
        0x000005a8:    ea436181    C..a    ORR      r1,r3,r1,LSL #26
        0x000005ac:    7815        .x      LDRB     r5,[r2,#0]
        0x000005ae:    ea41610e    A..a    ORR      r1,r1,lr,LSL #24
        0x000005b2:    7853        Sx      LDRB     r3,[r2,#1]
        0x000005b4:    4429        )D      ADD      r1,r1,r5
        0x000005b6:    7a14        .z      LDRB     r4,[r2,#8]
        0x000005b8:    ea412103    A..!    ORR      r1,r1,r3,LSL #8
        0x000005bc:    7a53        Sz      LDRB     r3,[r2,#9]
        0x000005be:    ea412184    A..!    ORR      r1,r1,r4,LSL #10
        0x000005c2:    7c55        U|      LDRB     r5,[r2,#0x11]
        0x000005c4:    ea413103    A..1    ORR      r1,r1,r3,LSL #12
        0x000005c8:    7c93        .|      LDRB     r3,[r2,#0x12]
        0x000005ca:    ea414105    A..A    ORR      r1,r1,r5,LSL #16
        0x000005ce:    7e15        .~      LDRB     r5,[r2,#0x18]
        0x000005d0:    ea414183    A..A    ORR      r1,r1,r3,LSL #18
        0x000005d4:    ea417105    A..q    ORR      r1,r1,r5,LSL #28
        0x000005d8:    6141        Aa      STR      r1,[r0,#0x14]
        0x000005da:    b10c        ..      CBZ      r4,0x5e0 ; QSPI_Command + 92
        0x000005dc:    6851        Qh      LDR      r1,[r2,#4]
        0x000005de:    6181        .a      STR      r1,[r0,#0x18]
        0x000005e0:    2003        .       MOVS     r0,#3
        0x000005e2:    bf00        ..      NOP      
        0x000005e4:    3801        .8      SUBS     r0,#1
        0x000005e6:    bf00        ..      NOP      
        0x000005e8:    d1fc        ..      BNE      0x5e4 ; QSPI_Command + 96
        0x000005ea:    bdb0        ..      POP      {r4,r5,r7,pc}
    QSPI_Erase_
        0x000005ec:    b5f0        ..      PUSH     {r4-r7,lr}
        0x000005ee:    b087        ..      SUB      sp,sp,#0x1c
        0x000005f0:    4604        .F      MOV      r4,r0
        0x000005f2:    4668        hF      MOV      r0,sp
        0x000005f4:    461d        .F      MOV      r5,r3
        0x000005f6:    4617        .F      MOV      r7,r2
        0x000005f8:    460e        .F      MOV      r6,r1
        0x000005fa:    f7ffffb9    ....    BL       QSPI_CmdStructClear ; 0x570
        0x000005fe:    f240000c    @...    MOVW     r0,#0xc
        0x00000602:    2f40        @/      CMP      r7,#0x40
        0x00000604:    f2c00000    ....    MOVT     r0,#0
        0x00000608:    d008        ..      BEQ      0x61c ; QSPI_Erase_ + 48
        0x0000060a:    2f04        ./      CMP      r7,#4
        0x0000060c:    d10e        ..      BNE      0x62c ; QSPI_Erase_ + 64
        0x0000060e:    f8192000    ...     LDRB     r2,[r9,r0]
        0x00000612:    2120         !      MOVS     r1,#0x20
        0x00000614:    2a03        .*      CMP      r2,#3
        0x00000616:    bf08        ..      IT       EQ
        0x00000618:    2121        !!      MOVEQ    r1,#0x21
        0x0000061a:    e007        ..      B        0x62c ; QSPI_Erase_ + 64
        0x0000061c:    f8192000    ...     LDRB     r2,[r9,r0]
        0x00000620:    f06f0127    o.'.    MVN      r1,#0x27
        0x00000624:    2a03        .*      CMP      r2,#3
        0x00000626:    bf08        ..      IT       EQ
        0x00000628:    f06f0123    o.#.    MVNEQ    r1,#0x23
        0x0000062c:    f8190000    ....    LDRB     r0,[r9,r0]
        0x00000630:    2201        ."      MOVS     r2,#1
        0x00000632:    f88d0009    ....    STRB     r0,[sp,#9]
        0x00000636:    2000        .       MOVS     r0,#0
        0x00000638:    f88d2001    ...     STRB     r2,[sp,#1]
        0x0000063c:    f88d1000    ....    STRB     r1,[sp,#0]
        0x00000640:    f88d2008    ...     STRB     r2,[sp,#8]
        0x00000644:    f88d0010    ....    STRB     r0,[sp,#0x10]
        0x00000648:    f8ad0012    ....    STRH     r0,[sp,#0x12]
        0x0000064c:    4620         F      MOV      r0,r4
        0x0000064e:    2106        .!      MOVS     r1,#6
        0x00000650:    2200        ."      MOVS     r2,#0
        0x00000652:    2300        .#      MOVS     r3,#0
        0x00000654:    9601        ..      STR      r6,[sp,#4]
        0x00000656:    f000f819    ....    BL       QSPI_WriteReg ; 0x68c
        0x0000065a:    466a        jF      MOV      r2,sp
        0x0000065c:    4620         F      MOV      r0,r4
        0x0000065e:    2100        .!      MOVS     r1,#0
        0x00000660:    f7ffff90    ....    BL       QSPI_Command ; 0x584
        0x00000664:    4620         F      MOV      r0,r4
        0x00000666:    f000f849    ..I.    BL       QSPI_Busy ; 0x6fc
        0x0000066a:    b108        ..      CBZ      r0,0x670 ; QSPI_Erase_ + 132
        0x0000066c:    bf00        ..      NOP      
        0x0000066e:    e7f9        ..      B        0x664 ; QSPI_Erase_ + 120
        0x00000670:    b155        U.      CBZ      r5,0x688 ; QSPI_Erase_ + 156
        0x00000672:    4620         F      MOV      r0,r4
        0x00000674:    f000f846    ..F.    BL       QSPI_FlashBusy ; 0x704
        0x00000678:    b130        0.      CBZ      r0,0x688 ; QSPI_Erase_ + 156
        0x0000067a:    bf00        ..      NOP      
        0x0000067c:    4620         F      MOV      r0,r4
        0x0000067e:    bf00        ..      NOP      
        0x00000680:    f000f840    ..@.    BL       QSPI_FlashBusy ; 0x704
        0x00000684:    2800        .(      CMP      r0,#0
        0x00000686:    d1f9        ..      BNE      0x67c ; QSPI_Erase_ + 144
        0x00000688:    b007        ..      ADD      sp,sp,#0x1c
        0x0000068a:    bdf0        ..      POP      {r4-r7,pc}
    QSPI_WriteReg
        0x0000068c:    b5f0        ..      PUSH     {r4-r7,lr}
        0x0000068e:    b089        ..      SUB      sp,sp,#0x24
        0x00000690:    af01        ..      ADD      r7,sp,#4
        0x00000692:    4604        .F      MOV      r4,r0
        0x00000694:    4638        8F      MOV      r0,r7
        0x00000696:    461d        .F      MOV      r5,r3
        0x00000698:    460e        .F      MOV      r6,r1
        0x0000069a:    9208        ..      STR      r2,[sp,#0x20]
        0x0000069c:    f7ffff68    ..h.    BL       QSPI_CmdStructClear ; 0x570
        0x000006a0:    2001        .       MOVS     r0,#1
        0x000006a2:    f88d0005    ....    STRB     r0,[sp,#5]
        0x000006a6:    2000        .       MOVS     r0,#0
        0x000006a8:    f88d000c    ....    STRB     r0,[sp,#0xc]
        0x000006ac:    f88d0014    ....    STRB     r0,[sp,#0x14]
        0x000006b0:    f88d0016    ....    STRB     r0,[sp,#0x16]
        0x000006b4:    4628        (F      MOV      r0,r5
        0x000006b6:    f88d6004    ...`    STRB     r6,[sp,#4]
        0x000006ba:    2d00        .-      CMP      r5,#0
        0x000006bc:    bf18        ..      IT       NE
        0x000006be:    2001        .       MOVNE    r0,#1
        0x000006c0:    f88d0017    ....    STRB     r0,[sp,#0x17]
        0x000006c4:    4620         F      MOV      r0,r4
        0x000006c6:    2100        .!      MOVS     r1,#0
        0x000006c8:    463a        :F      MOV      r2,r7
        0x000006ca:    9506        ..      STR      r5,[sp,#0x18]
        0x000006cc:    f7ffff5a    ..Z.    BL       QSPI_Command ; 0x584
        0x000006d0:    b13d        =.      CBZ      r5,0x6e2 ; QSPI_WriteReg + 86
        0x000006d2:    a808        ..      ADD      r0,sp,#0x20
        0x000006d4:    3801        .8      SUBS     r0,#1
        0x000006d6:    bf00        ..      NOP      
        0x000006d8:    5d41        A]      LDRB     r1,[r0,r5]
        0x000006da:    3d01        .=      SUBS     r5,#1
        0x000006dc:    f8841020    .. .    STRB     r1,[r4,#0x20]
        0x000006e0:    dcfa        ..      BGT      0x6d8 ; QSPI_WriteReg + 76
        0x000006e2:    4620         F      MOV      r0,r4
        0x000006e4:    f000f80a    ....    BL       QSPI_Busy ; 0x6fc
        0x000006e8:    b130        0.      CBZ      r0,0x6f8 ; QSPI_WriteReg + 108
        0x000006ea:    bf00        ..      NOP      
        0x000006ec:    4620         F      MOV      r0,r4
        0x000006ee:    bf00        ..      NOP      
        0x000006f0:    f000f804    ....    BL       QSPI_Busy ; 0x6fc
        0x000006f4:    2800        .(      CMP      r0,#0
        0x000006f6:    d1f9        ..      BNE      0x6ec ; QSPI_WriteReg + 96
        0x000006f8:    b009        ..      ADD      sp,sp,#0x24
        0x000006fa:    bdf0        ..      POP      {r4-r7,pc}
    QSPI_Busy
        0x000006fc:    6880        .h      LDR      r0,[r0,#8]
        0x000006fe:    f3c01040    ..@.    UBFX     r0,r0,#5,#1
        0x00000702:    4770        pG      BX       lr
    QSPI_FlashBusy
        0x00000704:    b580        ..      PUSH     {r7,lr}
        0x00000706:    2105        .!      MOVS     r1,#5
        0x00000708:    2201        ."      MOVS     r2,#1
        0x0000070a:    f000fa1f    ....    BL       QSPI_ReadReg ; 0xb4c
        0x0000070e:    f0000001    ....    AND      r0,r0,#1
        0x00000712:    bd80        ..      POP      {r7,pc}
    QSPI_Write_
        0x00000714:    e92d45f0    -..E    PUSH     {r4-r8,r10,lr}
        0x00000718:    b087        ..      SUB      sp,sp,#0x1c
        0x0000071a:    e9dd580e    ...X    LDRD     r5,r8,[sp,#0x38]
        0x0000071e:    4604        .F      MOV      r4,r0
        0x00000720:    4668        hF      MOV      r0,sp
        0x00000722:    469a        .F      MOV      r10,r3
        0x00000724:    4616        .F      MOV      r6,r2
        0x00000726:    460f        .F      MOV      r7,r1
        0x00000728:    f7ffff22    ..".    BL       QSPI_CmdStructClear ; 0x570
        0x0000072c:    f240000c    @...    MOVW     r0,#0xc
        0x00000730:    2d04        .-      CMP      r5,#4
        0x00000732:    f2c00000    ....    MOVT     r0,#0
        0x00000736:    d009        ..      BEQ      0x74c ; QSPI_Write_ + 56
        0x00000738:    2d01        .-      CMP      r5,#1
        0x0000073a:    d10e        ..      BNE      0x75a ; QSPI_Write_ + 70
        0x0000073c:    f8191000    ....    LDRB     r1,[r9,r0]
        0x00000740:    2202        ."      MOVS     r2,#2
        0x00000742:    2903        .)      CMP      r1,#3
        0x00000744:    bf08        ..      IT       EQ
        0x00000746:    2212        ."      MOVEQ    r2,#0x12
        0x00000748:    2101        .!      MOVS     r1,#1
        0x0000074a:    e006        ..      B        0x75a ; QSPI_Write_ + 70
        0x0000074c:    f8191000    ....    LDRB     r1,[r9,r0]
        0x00000750:    2232        2"      MOVS     r2,#0x32
        0x00000752:    2903        .)      CMP      r1,#3
        0x00000754:    bf08        ..      IT       EQ
        0x00000756:    2234        4"      MOVEQ    r2,#0x34
        0x00000758:    2103        .!      MOVS     r1,#3
        0x0000075a:    f8190000    ....    LDRB     r0,[r9,r0]
        0x0000075e:    2301        .#      MOVS     r3,#1
        0x00000760:    f88d3001    ...0    STRB     r3,[sp,#1]
        0x00000764:    f88d2000    ...     STRB     r2,[sp,#0]
        0x00000768:    f88d3008    ...0    STRB     r3,[sp,#8]
        0x0000076c:    f88d0009    ....    STRB     r0,[sp,#9]
        0x00000770:    2500        .%      MOVS     r5,#0
        0x00000772:    f88d1013    ....    STRB     r1,[sp,#0x13]
        0x00000776:    4620         F      MOV      r0,r4
        0x00000778:    2106        .!      MOVS     r1,#6
        0x0000077a:    2200        ."      MOVS     r2,#0
        0x0000077c:    2300        .#      MOVS     r3,#0
        0x0000077e:    9701        ..      STR      r7,[sp,#4]
        0x00000780:    f88d5010    ...P    STRB     r5,[sp,#0x10]
        0x00000784:    f88d5012    ...P    STRB     r5,[sp,#0x12]
        0x00000788:    f8cda014    ....    STR      r10,[sp,#0x14]
        0x0000078c:    f7ffff7e    ..~.    BL       QSPI_WriteReg ; 0x68c
        0x00000790:    466a        jF      MOV      r2,sp
        0x00000792:    4620         F      MOV      r0,r4
        0x00000794:    2100        .!      MOVS     r1,#0
        0x00000796:    f7fffef5    ....    BL       QSPI_Command ; 0x584
        0x0000079a:    f1b80f00    ....    CMP      r8,#0
        0x0000079e:    d04f        O.      BEQ      0x840 ; QSPI_Write_ + 300
        0x000007a0:    ebb50f9a    ....    CMP      r5,r10,LSR #2
        0x000007a4:    d017        ..      BEQ      0x7d6 ; QSPI_Write_ + 194
        0x000007a6:    ea4f079a    O...    LSR      r7,r10,#2
        0x000007aa:    2500        .%      MOVS     r5,#0
        0x000007ac:    e006        ..      B        0x7bc ; QSPI_Write_ + 168
        0x000007ae:    bf00        ..      NOP      
        0x000007b0:    f8560025    V.%.    LDR      r0,[r6,r5,LSL #2]
        0x000007b4:    3501        .5      ADDS     r5,#1
        0x000007b6:    42bd        .B      CMP      r5,r7
        0x000007b8:    6220         b      STR      r0,[r4,#0x20]
        0x000007ba:    d00c        ..      BEQ      0x7d6 ; QSPI_Write_ + 194
        0x000007bc:    4620         F      MOV      r0,r4
        0x000007be:    f000f843    ..C.    BL       QSPI_FIFOSpace ; 0x848
        0x000007c2:    2803        .(      CMP      r0,#3
        0x000007c4:    d8f4        ..      BHI      0x7b0 ; QSPI_Write_ + 156
        0x000007c6:    bf00        ..      NOP      
        0x000007c8:    4620         F      MOV      r0,r4
        0x000007ca:    bf00        ..      NOP      
        0x000007cc:    f000f83c    ..<.    BL       QSPI_FIFOSpace ; 0x848
        0x000007d0:    2804        .(      CMP      r0,#4
        0x000007d2:    d3f9        ..      BCC      0x7c8 ; QSPI_Write_ + 180
        0x000007d4:    e7ec        ..      B        0x7b0 ; QSPI_Write_ + 156
        0x000007d6:    ea5f708a    _..p    LSLS     r0,r10,#30
        0x000007da:    d50f        ..      BPL      0x7fc ; QSPI_Write_ + 232
        0x000007dc:    4620         F      MOV      r0,r4
        0x000007de:    f02a0503    *...    BIC      r5,r10,#3
        0x000007e2:    f000f831    ..1.    BL       QSPI_FIFOSpace ; 0x848
        0x000007e6:    2801        .(      CMP      r0,#1
        0x000007e8:    d806        ..      BHI      0x7f8 ; QSPI_Write_ + 228
        0x000007ea:    bf00        ..      NOP      
        0x000007ec:    4620         F      MOV      r0,r4
        0x000007ee:    bf00        ..      NOP      
        0x000007f0:    f000f82a    ..*.    BL       QSPI_FIFOSpace ; 0x848
        0x000007f4:    2802        .(      CMP      r0,#2
        0x000007f6:    d3f9        ..      BCC      0x7ec ; QSPI_Write_ + 216
        0x000007f8:    5b70        p[      LDRH     r0,[r6,r5]
        0x000007fa:    8420         .      STRH     r0,[r4,#0x20]
        0x000007fc:    ea5f70ca    _..p    LSLS     r0,r10,#31
        0x00000800:    d00f        ..      BEQ      0x822 ; QSPI_Write_ + 270
        0x00000802:    bf00        ..      NOP      
        0x00000804:    4620         F      MOV      r0,r4
        0x00000806:    f000f81f    ....    BL       QSPI_FIFOSpace ; 0x848
        0x0000080a:    b908        ..      CBNZ     r0,0x810 ; QSPI_Write_ + 252
        0x0000080c:    bf00        ..      NOP      
        0x0000080e:    e7f9        ..      B        0x804 ; QSPI_Write_ + 240
        0x00000810:    eb0a0006    ....    ADD      r0,r10,r6
        0x00000814:    f8100c01    ....    LDRB     r0,[r0,#-1]
        0x00000818:    f8840020    .. .    STRB     r0,[r4,#0x20]
        0x0000081c:    e001        ..      B        0x822 ; QSPI_Write_ + 270
        0x0000081e:    bf00        ..      NOP      
        0x00000820:    bf00        ..      NOP      
        0x00000822:    4620         F      MOV      r0,r4
        0x00000824:    f7ffff6a    ..j.    BL       QSPI_Busy ; 0x6fc
        0x00000828:    2800        .(      CMP      r0,#0
        0x0000082a:    d1f9        ..      BNE      0x820 ; QSPI_Write_ + 268
        0x0000082c:    4620         F      MOV      r0,r4
        0x0000082e:    f7ffff69    ..i.    BL       QSPI_FlashBusy ; 0x704
        0x00000832:    b128        (.      CBZ      r0,0x840 ; QSPI_Write_ + 300
        0x00000834:    4620         F      MOV      r0,r4
        0x00000836:    bf00        ..      NOP      
        0x00000838:    f7ffff64    ..d.    BL       QSPI_FlashBusy ; 0x704
        0x0000083c:    2800        .(      CMP      r0,#0
        0x0000083e:    d1f9        ..      BNE      0x834 ; QSPI_Write_ + 288
        0x00000840:    b007        ..      ADD      sp,sp,#0x1c
        0x00000842:    e8bd85f0    ....    POP      {r4-r8,r10,pc}
        0x00000846:    bf00        ..      NOP      
    QSPI_FIFOSpace
        0x00000848:    b580        ..      PUSH     {r7,lr}
        0x0000084a:    f000f8c7    ....    BL       QSPI_FIFOCount ; 0x9dc
        0x0000084e:    f1c00010    ....    RSB      r0,r0,#0x10
        0x00000852:    bd80        ..      POP      {r7,pc}
    QSPI_Read_
        0x00000854:    e92d4df0    -..M    PUSH     {r4-r8,r10,r11,lr}
        0x00000858:    b088        ..      SUB      sp,sp,#0x20
        0x0000085a:    f10d0840    ..@.    ADD      r8,sp,#0x40
        0x0000085e:    4605        .F      MOV      r5,r0
        0x00000860:    e8980190    ....    LDM      r8,{r4,r7,r8}
        0x00000864:    a801        ..      ADD      r0,sp,#4
        0x00000866:    469b        .F      MOV      r11,r3
        0x00000868:    468a        .F      MOV      r10,r1
        0x0000086a:    4616        .F      MOV      r6,r2
        0x0000086c:    f7fffe80    ....    BL       QSPI_CmdStructClear ; 0x570
        0x00000870:    ea471004    G...    ORR      r0,r7,r4,LSL #4
        0x00000874:    f2400c0c    @...    MOVW     r12,#0xc
        0x00000878:    f1a00411    ....    SUB      r4,r0,#0x11
        0x0000087c:    2c11        .,      CMP      r4,#0x11
        0x0000087e:    f2c00c00    ....    MOVT     r12,#0
        0x00000882:    d816        ..      BHI      0x8b2 ; QSPI_Read_ + 94
        0x00000884:    e8dff004    ....    TBB      [pc,r4]
    $d.1
        0x00000888:    2e472509    .%G.    DCD    776414473
        0x0000088c:    47474747    GGGG    DCD    1195853639
        0x00000890:    47474747    GGGG    DCD    1195853639
        0x00000894:    47474747    GGGG    DCD    1195853639
        0x00000898:    3a47        G:      DCW    14919
    $t.2
        0x0000089a:    f819000c    ....    LDRB     r0,[r9,r12]
        0x0000089e:    210b        .!      MOVS     r1,#0xb
        0x000008a0:    2803        .(      CMP      r0,#3
        0x000008a2:    bf08        ..      IT       EQ
        0x000008a4:    210c        .!      MOVEQ    r1,#0xc
        0x000008a6:    2001        .       MOVS     r0,#1
        0x000008a8:    f04f0e00    O...    MOV      lr,#0
        0x000008ac:    2308        .#      MOVS     r3,#8
        0x000008ae:    2701        .'      MOVS     r7,#1
        0x000008b0:    e031        1.      B        0x916 ; QSPI_Read_ + 194
        0x000008b2:    2844        D(      CMP      r0,#0x44
        0x000008b4:    d12f        /.      BNE      0x916 ; QSPI_Read_ + 194
        0x000008b6:    f819000c    ....    LDRB     r0,[r9,r12]
        0x000008ba:    f06f0114    o...    MVN      r1,#0x14
        0x000008be:    2803        .(      CMP      r0,#3
        0x000008c0:    bf08        ..      IT       EQ
        0x000008c2:    f06f0113    o...    MVNEQ    r1,#0x13
        0x000008c6:    f04f0e03    O...    MOV      lr,#3
        0x000008ca:    2304        .#      MOVS     r3,#4
        0x000008cc:    2003        .       MOVS     r0,#3
        0x000008ce:    2703        .'      MOVS     r7,#3
        0x000008d0:    e021        !.      B        0x916 ; QSPI_Read_ + 194
        0x000008d2:    f819000c    ....    LDRB     r0,[r9,r12]
        0x000008d6:    213b        ;!      MOVS     r1,#0x3b
        0x000008d8:    2803        .(      CMP      r0,#3
        0x000008da:    bf08        ..      IT       EQ
        0x000008dc:    213c        <!      MOVEQ    r1,#0x3c
        0x000008de:    2701        .'      MOVS     r7,#1
        0x000008e0:    2002        .       MOVS     r0,#2
        0x000008e2:    e007        ..      B        0x8f4 ; QSPI_Read_ + 160
        0x000008e4:    f819000c    ....    LDRB     r0,[r9,r12]
        0x000008e8:    216b        k!      MOVS     r1,#0x6b
        0x000008ea:    2803        .(      CMP      r0,#3
        0x000008ec:    bf08        ..      IT       EQ
        0x000008ee:    216c        l!      MOVEQ    r1,#0x6c
        0x000008f0:    2701        .'      MOVS     r7,#1
        0x000008f2:    2003        .       MOVS     r0,#3
        0x000008f4:    f04f0e00    O...    MOV      lr,#0
        0x000008f8:    2308        .#      MOVS     r3,#8
        0x000008fa:    e00c        ..      B        0x916 ; QSPI_Read_ + 194
        0x000008fc:    f819000c    ....    LDRB     r0,[r9,r12]
        0x00000900:    f06f0144    o.D.    MVN      r1,#0x44
        0x00000904:    2803        .(      CMP      r0,#3
        0x00000906:    bf08        ..      IT       EQ
        0x00000908:    f06f0143    o.C.    MVNEQ    r1,#0x43
        0x0000090c:    f04f0e02    O...    MOV      lr,#2
        0x00000910:    2300        .#      MOVS     r3,#0
        0x00000912:    2002        .       MOVS     r0,#2
        0x00000914:    2702        .'      MOVS     r7,#2
        0x00000916:    f88d1004    ....    STRB     r1,[sp,#4]
        0x0000091a:    f819100c    ....    LDRB     r1,[r9,r12]
        0x0000091e:    2201        ."      MOVS     r2,#1
        0x00000920:    f88d100d    ....    STRB     r1,[sp,#0xd]
        0x00000924:    21ff        .!      MOVS     r1,#0xff
        0x00000926:    f88d2005    ...     STRB     r2,[sp,#5]
        0x0000092a:    2400        .$      MOVS     r4,#0
        0x0000092c:    9104        ..      STR      r1,[sp,#0x10]
        0x0000092e:    f88d0017    ....    STRB     r0,[sp,#0x17]
        0x00000932:    aa01        ..      ADD      r2,sp,#4
        0x00000934:    4628        (F      MOV      r0,r5
        0x00000936:    2101        .!      MOVS     r1,#1
        0x00000938:    f88d700c    ...p    STRB     r7,[sp,#0xc]
        0x0000093c:    f8cda008    ....    STR      r10,[sp,#8]
        0x00000940:    f88de014    ....    STRB     lr,[sp,#0x14]
        0x00000944:    f88d4015    ...@    STRB     r4,[sp,#0x15]
        0x00000948:    f88d3016    ...0    STRB     r3,[sp,#0x16]
        0x0000094c:    f8cdb018    ....    STR      r11,[sp,#0x18]
        0x00000950:    f7fffe18    ....    BL       QSPI_Command ; 0x584
        0x00000954:    f1b80f00    ....    CMP      r8,#0
        0x00000958:    d03c        <.      BEQ      0x9d4 ; QSPI_Read_ + 384
        0x0000095a:    ebb40f9b    ....    CMP      r4,r11,LSR #2
        0x0000095e:    d016        ..      BEQ      0x98e ; QSPI_Read_ + 314
        0x00000960:    ea4f079b    O...    LSR      r7,r11,#2
        0x00000964:    2400        .$      MOVS     r4,#0
        0x00000966:    e005        ..      B        0x974 ; QSPI_Read_ + 288
        0x00000968:    6a28        (j      LDR      r0,[r5,#0x20]
        0x0000096a:    f8460024    F.$.    STR      r0,[r6,r4,LSL #2]
        0x0000096e:    3401        .4      ADDS     r4,#1
        0x00000970:    42bc        .B      CMP      r4,r7
        0x00000972:    d00c        ..      BEQ      0x98e ; QSPI_Read_ + 314
        0x00000974:    4628        (F      MOV      r0,r5
        0x00000976:    f000f831    ..1.    BL       QSPI_FIFOCount ; 0x9dc
        0x0000097a:    2803        .(      CMP      r0,#3
        0x0000097c:    d8f4        ..      BHI      0x968 ; QSPI_Read_ + 276
        0x0000097e:    bf00        ..      NOP      
        0x00000980:    4628        (F      MOV      r0,r5
        0x00000982:    bf00        ..      NOP      
        0x00000984:    f000f82a    ..*.    BL       QSPI_FIFOCount ; 0x9dc
        0x00000988:    2804        .(      CMP      r0,#4
        0x0000098a:    d3f9        ..      BCC      0x980 ; QSPI_Read_ + 300
        0x0000098c:    e7ec        ..      B        0x968 ; QSPI_Read_ + 276
        0x0000098e:    ea5f708b    _..p    LSLS     r0,r11,#30
        0x00000992:    d50f        ..      BPL      0x9b4 ; QSPI_Read_ + 352
        0x00000994:    4628        (F      MOV      r0,r5
        0x00000996:    f02b0403    +...    BIC      r4,r11,#3
        0x0000099a:    f000f81f    ....    BL       QSPI_FIFOCount ; 0x9dc
        0x0000099e:    2801        .(      CMP      r0,#1
        0x000009a0:    d806        ..      BHI      0x9b0 ; QSPI_Read_ + 348
        0x000009a2:    bf00        ..      NOP      
        0x000009a4:    4628        (F      MOV      r0,r5
        0x000009a6:    bf00        ..      NOP      
        0x000009a8:    f000f818    ....    BL       QSPI_FIFOCount ; 0x9dc
        0x000009ac:    2802        .(      CMP      r0,#2
        0x000009ae:    d3f9        ..      BCC      0x9a4 ; QSPI_Read_ + 336
        0x000009b0:    8c28        (.      LDRH     r0,[r5,#0x20]
        0x000009b2:    5330        0S      STRH     r0,[r6,r4]
        0x000009b4:    ea5f70cb    _..p    LSLS     r0,r11,#31
        0x000009b8:    d00c        ..      BEQ      0x9d4 ; QSPI_Read_ + 384
        0x000009ba:    bf00        ..      NOP      
        0x000009bc:    4628        (F      MOV      r0,r5
        0x000009be:    f000f80d    ....    BL       QSPI_FIFOCount ; 0x9dc
        0x000009c2:    b908        ..      CBNZ     r0,0x9c8 ; QSPI_Read_ + 372
        0x000009c4:    bf00        ..      NOP      
        0x000009c6:    e7f9        ..      B        0x9bc ; QSPI_Read_ + 360
        0x000009c8:    f8950020    .. .    LDRB     r0,[r5,#0x20]
        0x000009cc:    eb0b0106    ....    ADD      r1,r11,r6
        0x000009d0:    f8010c01    ....    STRB     r0,[r1,#-1]
        0x000009d4:    b008        ..      ADD      sp,sp,#0x20
        0x000009d6:    e8bd8df0    ....    POP      {r4-r8,r10,r11,pc}
        0x000009da:    bf00        ..      NOP      
    QSPI_FIFOCount
        0x000009dc:    6880        .h      LDR      r0,[r0,#8]
        0x000009de:    f3c02005    ...     UBFX     r0,r0,#8,#6
        0x000009e2:    4770        pG      BX       lr
    QSPI_MemoryMap
        0x000009e4:    b5f0        ..      PUSH     {r4-r7,lr}
        0x000009e6:    b081        ..      SUB      sp,sp,#4
        0x000009e8:    4615        .F      MOV      r5,r2
        0x000009ea:    460e        .F      MOV      r6,r1
        0x000009ec:    4604        .F      MOV      r4,r0
        0x000009ee:    bf00        ..      NOP      
        0x000009f0:    f7fffe84    ....    BL       QSPI_Busy ; 0x6fc
        0x000009f4:    b110        ..      CBZ      r0,0x9fc ; QSPI_MemoryMap + 24
        0x000009f6:    4620         F      MOV      r0,r4
        0x000009f8:    bf00        ..      NOP      
        0x000009fa:    e7f9        ..      B        0x9f0 ; QSPI_MemoryMap + 12
        0x000009fc:    6c60        `l      LDR      r0,[r4,#0x44]
        0x000009fe:    f0400001    @...    ORR      r0,r0,#1
        0x00000a02:    6460        `d      STR      r0,[r4,#0x44]
        0x00000a04:    f2400004    @...    MOVW     r0,#4
        0x00000a08:    f2c00000    ....    MOVT     r0,#0
        0x00000a0c:    f8591000    Y...    LDR      r1,[r9,r0]
        0x00000a10:    b131        1.      CBZ      r1,0xa20 ; QSPI_MemoryMap + 60
        0x00000a12:    2100        .!      MOVS     r1,#0
        0x00000a14:    bf00        ..      NOP      
        0x00000a16:    f8592000    Y..     LDR      r2,[r9,r0]
        0x00000a1a:    3101        .1      ADDS     r1,#1
        0x00000a1c:    4291        .B      CMP      r1,r2
        0x00000a1e:    d3f9        ..      BCC      0xa14 ; QSPI_MemoryMap + 48
        0x00000a20:    ea451006    E...    ORR      r0,r5,r6,LSL #4
        0x00000a24:    f2400c0c    @...    MOVW     r12,#0xc
        0x00000a28:    f1a00211    ....    SUB      r2,r0,#0x11
        0x00000a2c:    2301        .#      MOVS     r3,#1
        0x00000a2e:    2a11        .*      CMP      r2,#0x11
        0x00000a30:    f04f0100    O...    MOV      r1,#0
        0x00000a34:    f2c00c00    ....    MOVT     r12,#0
        0x00000a38:    d81d        ..      BHI      0xa76 ; QSPI_MemoryMap + 146
        0x00000a3a:    2000        .       MOVS     r0,#0
        0x00000a3c:    2500        .%      MOVS     r5,#0
        0x00000a3e:    2600        .&      MOVS     r6,#0
        0x00000a40:    f04f0e00    O...    MOV      lr,#0
        0x00000a44:    e8dff002    ....    TBB      [pc,r2]
    $d.3
        0x00000a48:    3f5d3109    .1]?    DCD    1063072009
        0x00000a4c:    5d5d5d5d    ]]]]    DCD    1566399837
        0x00000a50:    5d5d5d5d    ]]]]    DCD    1566399837
        0x00000a54:    5d5d5d5d    ]]]]    DCD    1566399837
        0x00000a58:    4f5d        ]O      DCW    20317
    $t.4
        0x00000a5a:    f819000c    ....    LDRB     r0,[r9,r12]
        0x00000a5e:    210b        .!      MOVS     r1,#0xb
        0x00000a60:    2803        .(      CMP      r0,#3
        0x00000a62:    bf08        ..      IT       EQ
        0x00000a64:    210c        .!      MOVEQ    r1,#0xc
        0x00000a66:    f04f0e00    O...    MOV      lr,#0
        0x00000a6a:    2301        .#      MOVS     r3,#1
        0x00000a6c:    f44f1600    O...    MOV      r6,#0x200000
        0x00000a70:    f04f7580    O..u    MOV      r5,#0x1000000
        0x00000a74:    e034        4.      B        0xae0 ; QSPI_MemoryMap + 252
        0x00000a76:    2844        D(      CMP      r0,#0x44
        0x00000a78:    f04f0000    O...    MOV      r0,#0
        0x00000a7c:    f04f0500    O...    MOV      r5,#0
        0x00000a80:    f04f0600    O...    MOV      r6,#0
        0x00000a84:    f04f0e00    O...    MOV      lr,#0
        0x00000a88:    d13b        ;.      BNE      0xb02 ; QSPI_MemoryMap + 286
        0x00000a8a:    f819000c    ....    LDRB     r0,[r9,r12]
        0x00000a8e:    21eb        .!      MOVS     r1,#0xeb
        0x00000a90:    2803        .(      CMP      r0,#3
        0x00000a92:    bf08        ..      IT       EQ
        0x00000a94:    21ec        .!      MOVEQ    r1,#0xec
        0x00000a96:    f44f4e40    O.@N    MOV      lr,#0xc000
        0x00000a9a:    2300        .#      MOVS     r3,#0
        0x00000a9c:    f44f1680    O...    MOV      r6,#0x100000
        0x00000aa0:    f04f7540    O.@u    MOV      r5,#0x3000000
        0x00000aa4:    f44f6040    O.@`    MOV      r0,#0xc00
        0x00000aa8:    e02b        +.      B        0xb02 ; QSPI_MemoryMap + 286
        0x00000aaa:    f819000c    ....    LDRB     r0,[r9,r12]
        0x00000aae:    213b        ;!      MOVS     r1,#0x3b
        0x00000ab0:    2803        .(      CMP      r0,#3
        0x00000ab2:    bf08        ..      IT       EQ
        0x00000ab4:    213c        <!      MOVEQ    r1,#0x3c
        0x00000ab6:    f04f0e00    O...    MOV      lr,#0
        0x00000aba:    2301        .#      MOVS     r3,#1
        0x00000abc:    f44f1600    O...    MOV      r6,#0x200000
        0x00000ac0:    f04f7500    O..u    MOV      r5,#0x2000000
        0x00000ac4:    e00c        ..      B        0xae0 ; QSPI_MemoryMap + 252
        0x00000ac6:    f819000c    ....    LDRB     r0,[r9,r12]
        0x00000aca:    216b        k!      MOVS     r1,#0x6b
        0x00000acc:    f04f0e00    O...    MOV      lr,#0
        0x00000ad0:    2301        .#      MOVS     r3,#1
        0x00000ad2:    f44f1600    O...    MOV      r6,#0x200000
        0x00000ad6:    f04f7540    O.@u    MOV      r5,#0x3000000
        0x00000ada:    2803        .(      CMP      r0,#3
        0x00000adc:    bf08        ..      IT       EQ
        0x00000ade:    216c        l!      MOVEQ    r1,#0x6c
        0x00000ae0:    f44f6080    O..`    MOV      r0,#0x400
        0x00000ae4:    e00d        ..      B        0xb02 ; QSPI_MemoryMap + 286
        0x00000ae6:    f819000c    ....    LDRB     r0,[r9,r12]
        0x00000aea:    21bb        .!      MOVS     r1,#0xbb
        0x00000aec:    2803        .(      CMP      r0,#3
        0x00000aee:    bf08        ..      IT       EQ
        0x00000af0:    21bc        .!      MOVEQ    r1,#0xbc
        0x00000af2:    f44f4e00    O..N    MOV      lr,#0x8000
        0x00000af6:    2600        .&      MOVS     r6,#0
        0x00000af8:    f04f7500    O..u    MOV      r5,#0x2000000
        0x00000afc:    f44f6000    O..`    MOV      r0,#0x800
        0x00000b00:    2300        .#      MOVS     r3,#0
        0x00000b02:    4308        .C      ORRS     r0,r0,r1
        0x00000b04:    2b00        .+      CMP      r3,#0
        0x00000b06:    bf04        ..      ITT      EQ
        0x00000b08:    22ff        ."      MOVEQ    r2,#0xff
        0x00000b0a:    61e2        .a      STREQ    r2,[r4,#0x1c]
        0x00000b0c:    4328        (C      ORRS     r0,r0,r5
        0x00000b0e:    f819200c    ...     LDRB     r2,[r9,r12]
        0x00000b12:    4330        0C      ORRS     r0,r0,r6
        0x00000b14:    ea40000e    @...    ORR      r0,r0,lr
        0x00000b18:    ea403002    @..0    ORR      r0,r0,r2,LSL #12
        0x00000b1c:    f0406040    @.@`    ORR      r0,r0,#0xc000000
        0x00000b20:    f4407080    @..p    ORR      r0,r0,#0x100
        0x00000b24:    6160        `a      STR      r0,[r4,#0x14]
        0x00000b26:    b001        ..      ADD      sp,sp,#4
        0x00000b28:    bdf0        ..      POP      {r4-r7,pc}
        0x00000b2a:    bf00        ..      NOP      
    QSPI_MemoryMapClose
        0x00000b2c:    b510        ..      PUSH     {r4,lr}
        0x00000b2e:    4604        .F      MOV      r4,r0
        0x00000b30:    f7fffde4    ....    BL       QSPI_Busy ; 0x6fc
        0x00000b34:    b130        0.      CBZ      r0,0xb44 ; QSPI_MemoryMapClose + 24
        0x00000b36:    bf00        ..      NOP      
        0x00000b38:    4620         F      MOV      r0,r4
        0x00000b3a:    bf00        ..      NOP      
        0x00000b3c:    f7fffdde    ....    BL       QSPI_Busy ; 0x6fc
        0x00000b40:    2800        .(      CMP      r0,#0
        0x00000b42:    d1f9        ..      BNE      0xb38 ; QSPI_MemoryMapClose + 12
        0x00000b44:    4620         F      MOV      r0,r4
        0x00000b46:    f7fffddd    ....    BL       QSPI_FlashBusy ; 0x704
        0x00000b4a:    bd10        ..      POP      {r4,pc}
    QSPI_ReadReg
        0x00000b4c:    b5f0        ..      PUSH     {r4-r7,lr}
        0x00000b4e:    b089        ..      SUB      sp,sp,#0x24
        0x00000b50:    af02        ..      ADD      r7,sp,#8
        0x00000b52:    4605        .F      MOV      r5,r0
        0x00000b54:    4638        8F      MOV      r0,r7
        0x00000b56:    4614        .F      MOV      r4,r2
        0x00000b58:    460e        .F      MOV      r6,r1
        0x00000b5a:    f7fffd09    ....    BL       QSPI_CmdStructClear ; 0x570
        0x00000b5e:    2001        .       MOVS     r0,#1
        0x00000b60:    f88d0009    ....    STRB     r0,[sp,#9]
        0x00000b64:    f44f7080    O..p    MOV      r0,#0x100
        0x00000b68:    f88d6008    ...`    STRB     r6,[sp,#8]
        0x00000b6c:    2600        .&      MOVS     r6,#0
        0x00000b6e:    f8ad001a    ....    STRH     r0,[sp,#0x1a]
        0x00000b72:    4628        (F      MOV      r0,r5
        0x00000b74:    2101        .!      MOVS     r1,#1
        0x00000b76:    463a        :F      MOV      r2,r7
        0x00000b78:    f88d6010    ...`    STRB     r6,[sp,#0x10]
        0x00000b7c:    f88d6018    ...`    STRB     r6,[sp,#0x18]
        0x00000b80:    9407        ..      STR      r4,[sp,#0x1c]
        0x00000b82:    f7fffcff    ....    BL       QSPI_Command ; 0x584
        0x00000b86:    bf00        ..      NOP      
        0x00000b88:    4628        (F      MOV      r0,r5
        0x00000b8a:    f7ffff27    ..'.    BL       QSPI_FIFOCount ; 0x9dc
        0x00000b8e:    42a0        .B      CMP      r0,r4
        0x00000b90:    d201        ..      BCS      0xb96 ; QSPI_ReadReg + 74
        0x00000b92:    bf00        ..      NOP      
        0x00000b94:    e7f8        ..      B        0xb88 ; QSPI_ReadReg + 60
        0x00000b96:    9601        ..      STR      r6,[sp,#4]
        0x00000b98:    b13c        <.      CBZ      r4,0xbaa ; QSPI_ReadReg + 94
        0x00000b9a:    a801        ..      ADD      r0,sp,#4
        0x00000b9c:    3801        .8      SUBS     r0,#1
        0x00000b9e:    bf00        ..      NOP      
        0x00000ba0:    f8951020    .. .    LDRB     r1,[r5,#0x20]
        0x00000ba4:    5501        .U      STRB     r1,[r0,r4]
        0x00000ba6:    3c01        .<      SUBS     r4,#1
        0x00000ba8:    dcfa        ..      BGT      0xba0 ; QSPI_ReadReg + 84
        0x00000baa:    9801        ..      LDR      r0,[sp,#4]
        0x00000bac:    b009        ..      ADD      sp,sp,#0x24
        0x00000bae:    bdf0        ..      POP      {r4-r7,pc}
    QSPI_QuadState
        0x00000bb0:    b580        ..      PUSH     {r7,lr}
        0x00000bb2:    2135        5!      MOVS     r1,#0x35
        0x00000bb4:    2201        ."      MOVS     r2,#1
        0x00000bb6:    f7ffffc9    ....    BL       QSPI_ReadReg ; 0xb4c
        0x00000bba:    f3c00040    ..@.    UBFX     r0,r0,#1,#1
        0x00000bbe:    bd80        ..      POP      {r7,pc}
    QSPI_QuadSwitch
        0x00000bc0:    b570        p.      PUSH     {r4-r6,lr}
        0x00000bc2:    460d        .F      MOV      r5,r1
        0x00000bc4:    2135        5!      MOVS     r1,#0x35
        0x00000bc6:    2201        ."      MOVS     r2,#1
        0x00000bc8:    4604        .F      MOV      r4,r0
        0x00000bca:    f7ffffbf    ....    BL       QSPI_ReadReg ; 0xb4c
        0x00000bce:    f00006fd    ....    AND      r6,r0,#0xfd
        0x00000bd2:    4620         F      MOV      r0,r4
        0x00000bd4:    2106        .!      MOVS     r1,#6
        0x00000bd6:    2200        ."      MOVS     r2,#0
        0x00000bd8:    2300        .#      MOVS     r3,#0
        0x00000bda:    2d00        .-      CMP      r5,#0
        0x00000bdc:    bf18        ..      IT       NE
        0x00000bde:    3602        .6      ADDNE    r6,#2
        0x00000be0:    f7fffd54    ..T.    BL       QSPI_WriteReg ; 0x68c
        0x00000be4:    4620         F      MOV      r0,r4
        0x00000be6:    2131        1!      MOVS     r1,#0x31
        0x00000be8:    4632        2F      MOV      r2,r6
        0x00000bea:    2301        .#      MOVS     r3,#1
        0x00000bec:    f7fffd4e    ..N.    BL       QSPI_WriteReg ; 0x68c
        0x00000bf0:    4620         F      MOV      r0,r4
        0x00000bf2:    f7fffd87    ....    BL       QSPI_FlashBusy ; 0x704
        0x00000bf6:    2800        .(      CMP      r0,#0
        0x00000bf8:    bf08        ..      IT       EQ
        0x00000bfa:    bd70        p.      POPEQ    {r4-r6,pc}
        0x00000bfc:    4620         F      MOV      r0,r4
        0x00000bfe:    bf00        ..      NOP      
        0x00000c00:    f7fffd80    ....    BL       QSPI_FlashBusy ; 0x704
        0x00000c04:    2800        .(      CMP      r0,#0
        0x00000c06:    d1f9        ..      BNE      0xbfc ; QSPI_QuadSwitch + 60
        0x00000c08:    bd70        p.      POP      {r4-r6,pc}
        0x00000c0a:    bf00        ..      NOP      
    QSPI_INTEn
        0x00000c0c:    6802        .h      LDR      r2,[r0,#0]
        0x00000c0e:    ea424101    B..A    ORR      r1,r2,r1,LSL #16
        0x00000c12:    6001        .`      STR      r1,[r0,#0]
        0x00000c14:    4770        pG      BX       lr
        0x00000c16:    bf00        ..      NOP      
    QSPI_INTDis
        0x00000c18:    6802        .h      LDR      r2,[r0,#0]
        0x00000c1a:    ea224101    "..A    BIC      r1,r2,r1,LSL #16
        0x00000c1e:    6001        .`      STR      r1,[r0,#0]
        0x00000c20:    4770        pG      BX       lr
        0x00000c22:    bf00        ..      NOP      
    QSPI_INTClr
        0x00000c24:    60c1        .`      STR      r1,[r0,#0xc]
        0x00000c26:    4770        pG      BX       lr
    QSPI_INTStat
        0x00000c28:    6880        .h      LDR      r0,[r0,#8]
        0x00000c2a:    4008        .@      ANDS     r0,r0,r1
        0x00000c2c:    4770        pG      BX       lr
        0x00000c2e:    0000        ..      MOVS     r0,r0
    FLASH_Erase
        0x00000c30:    0581        ..      LSLS     r1,r0,#22
        0x00000c32:    bf1c        ..      ITT      NE
        0x00000c34:    2002        .       MOVNE    r0,#2
        0x00000c36:    4770        pG      BXNE     lr
        0x00000c38:    b580        ..      PUSH     {r7,lr}
        0x00000c3a:    f3ef8110    ....    MRS      r1,PRIMASK
        0x00000c3e:    b672        r.      CPSID    i
        0x00000c40:    f2404201    @..B    MOV      r2,#0x401
        0x00000c44:    f64f71ac    O..q    MOV      r1,#0xffac
        0x00000c48:    0a80        ..      LSRS     r0,r0,#10
        0x00000c4a:    f6c03111    ...1    MOVT     r1,#0xb11
        0x00000c4e:    f2c01200    ....    MOVT     r2,#0x100
        0x00000c52:    4790        .G      BLX      r2
        0x00000c54:    f000f804    ....    BL       FLASH_CacheClear ; 0xc60
        0x00000c58:    2000        .       MOVS     r0,#0
        0x00000c5a:    b662        b.      CPSIE    i
        0x00000c5c:    bd80        ..      POP      {r7,pc}
        0x00000c5e:    bf00        ..      NOP      
    FLASH_CacheClear
        0x00000c60:    b580        ..      PUSH     {r7,lr}
        0x00000c62:    f645000c    E...    MOV      r0,#0x580c
        0x00000c66:    f2c40004    ....    MOVT     r0,#0x4004
        0x00000c6a:    6800        .h      LDR      r0,[r0,#0]
        0x00000c6c:    f64f71ac    O..q    MOV      r1,#0xffac
        0x00000c70:    f2406221    @.!b    MOV      r2,#0x621
        0x00000c74:    f0404000    @..@    ORR      r0,r0,#0x80000000
        0x00000c78:    f6c03111    ...1    MOVT     r1,#0xb11
        0x00000c7c:    f2c01200    ....    MOVT     r2,#0x100
        0x00000c80:    4790        .G      BLX      r2
        0x00000c82:    bd80        ..      POP      {r7,pc}
    FLASH_Write
        0x00000c84:    f0000c0f    ....    AND      r12,r0,#0xf
        0x00000c88:    f0020303    ....    AND      r3,r2,#3
        0x00000c8c:    ea53030c    S...    ORRS     r3,r3,r12
        0x00000c90:    bf1c        ..      ITT      NE
        0x00000c92:    2002        .       MOVNE    r0,#2
        0x00000c94:    4770        pG      BXNE     lr
        0x00000c96:    b580        ..      PUSH     {r7,lr}
        0x00000c98:    f3ef8310    ....    MRS      r3,PRIMASK
        0x00000c9c:    b672        r.      CPSID    i
        0x00000c9e:    f2404c81    @..L    MOV      r12,#0x481
        0x00000ca2:    f64f73ac    O..s    MOV      r3,#0xffac
        0x00000ca6:    0892        ..      LSRS     r2,r2,#2
        0x00000ca8:    f6c03311    ...3    MOVT     r3,#0xb11
        0x00000cac:    f2c01c00    ....    MOVT     r12,#0x100
        0x00000cb0:    47e0        .G      BLX      r12
        0x00000cb2:    f7ffffd5    ....    BL       FLASH_CacheClear ; 0xc60
        0x00000cb6:    2000        .       MOVS     r0,#0
        0x00000cb8:    b662        b.      CPSIE    i
        0x00000cba:    bd80        ..      POP      {r7,pc}
    Flash_Param_at_xMHz
        0x00000cbc:    b570        p.      PUSH     {r4-r6,lr}
        0x00000cbe:    f64f74ac    O..t    MOV      r4,#0xffac
        0x00000cc2:    4605        .F      MOV      r5,r0
        0x00000cc4:    f3ef8010    ....    MRS      r0,PRIMASK
        0x00000cc8:    b672        r.      CPSID    i
        0x00000cca:    f6c03411    ...4    MOVT     r4,#0xb11
        0x00000cce:    f2405661    @.aV    MOV      r6,#0x561
        0x00000cd2:    2005        .       MOVS     r0,#5
        0x00000cd4:    f2c01600    ....    MOVT     r6,#0x100
        0x00000cd8:    4621        !F      MOV      r1,r4
        0x00000cda:    47b0        .G      BLX      r6
        0x00000cdc:    f44f707a    O.zp    MOV      r0,#0x3e8
        0x00000ce0:    fbb0f0f5    ....    UDIV     r0,r0,r5
        0x00000ce4:    f2405221    @.!R    MOV      r2,#0x521
        0x00000ce8:    f2c01200    ....    MOVT     r2,#0x100
        0x00000cec:    4621        !F      MOV      r1,r4
        0x00000cee:    4790        .G      BLX      r2
        0x00000cf0:    2d30        0-      CMP      r5,#0x30
        0x00000cf2:    d201        ..      BCS      0xcf8 ; Flash_Param_at_xMHz + 60
        0x00000cf4:    2000        .       MOVS     r0,#0
        0x00000cf6:    e00e        ..      B        0xd16 ; Flash_Param_at_xMHz + 90
        0x00000cf8:    2d4c        L-      CMP      r5,#0x4c
        0x00000cfa:    d201        ..      BCS      0xd00 ; Flash_Param_at_xMHz + 68
        0x00000cfc:    2001        .       MOVS     r0,#1
        0x00000cfe:    e00a        ..      B        0xd16 ; Flash_Param_at_xMHz + 90
        0x00000d00:    2d66        f-      CMP      r5,#0x66
        0x00000d02:    d201        ..      BCS      0xd08 ; Flash_Param_at_xMHz + 76
        0x00000d04:    2002        .       MOVS     r0,#2
        0x00000d06:    e006        ..      B        0xd16 ; Flash_Param_at_xMHz + 90
        0x00000d08:    2d80        .-      CMP      r5,#0x80
        0x00000d0a:    d201        ..      BCS      0xd10 ; Flash_Param_at_xMHz + 84
        0x00000d0c:    2003        .       MOVS     r0,#3
        0x00000d0e:    e002        ..      B        0xd16 ; Flash_Param_at_xMHz + 90
        0x00000d10:    2d97        .-      CMP      r5,#0x97
        0x00000d12:    d802        ..      BHI      0xd1a ; Flash_Param_at_xMHz + 94
        0x00000d14:    2004        .       MOVS     r0,#4
        0x00000d16:    4621        !F      MOV      r1,r4
        0x00000d18:    47b0        .G      BLX      r6
        0x00000d1a:    b662        b.      CPSIE    i
        0x00000d1c:    bd70        p.      POP      {r4-r6,pc}
        0x00000d1e:    0000        ..      MOVS     r0,r0
    SystemCoreClockUpdate
        0x00000d20:    f04f4280    O..B    MOV      r2,#0x40000000
        0x00000d24:    6810        .h      LDR      r0,[r2,#0]
        0x00000d26:    f2412100    A..!    MOVW     r1,#0x1200
        0x00000d2a:    f2400c08    @...    MOVW     r12,#8
        0x00000d2e:    07c0        ..      LSLS     r0,r0,#31
        0x00000d30:    f2c0017a    ..z.    MOVT     r1,#0x7a
        0x00000d34:    f2c00c00    ....    MOVT     r12,#0
        0x00000d38:    d133        3.      BNE      0xda2 ; SystemCoreClockUpdate + 130
        0x00000d3a:    6812        .h      LDR      r2,[r2,#0]
        0x00000d3c:    f3c20382    ....    UBFX     r3,r2,#2,#3
        0x00000d40:    2b04        .+      CMP      r3,#4
        0x00000d42:    d826        &.      BHI      0xd92 ; SystemCoreClockUpdate + 114
        0x00000d44:    f44f42fa    O..B    MOV      r2,#0x7d00
        0x00000d48:    e8dff003    ....    TBB      [pc,r3]
    $d.1
        0x00000d4c:    031f0521    !...    DCD    52364577
        0x00000d50:    0003        ..      DCW    3
    $t.2
        0x00000d52:    460a        .F      MOV      r2,r1
        0x00000d54:    e01b        ..      B        0xd8e ; SystemCoreClockUpdate + 110
        0x00000d56:    f6450014    E...    MOV      r0,#0x5814
        0x00000d5a:    f2c4000a    ....    MOVT     r0,#0x400a
        0x00000d5e:    f8502c04    P..,    LDR      r2,[r0,#-4]
        0x00000d62:    f849100c    I...    STR      r1,[r9,r12]
        0x00000d66:    6802        .h      LDR      r2,[r0,#0]
        0x00000d68:    6803        .h      LDR      r3,[r0,#0]
        0x00000d6a:    f3c24202    ...B    UBFX     r2,r2,#16,#3
        0x00000d6e:    f3c32305    ...#    UBFX     r3,r3,#8,#6
        0x00000d72:    3201        .2      ADDS     r2,#1
        0x00000d74:    6800        .h      LDR      r0,[r0,#0]
        0x00000d76:    fbb1f1f2    ....    UDIV     r1,r1,r2
        0x00000d7a:    f0000007    ....    AND      r0,r0,#7
        0x00000d7e:    fb01f103    ....    MUL      r1,r1,r3
        0x00000d82:    3001        .0      ADDS     r0,#1
        0x00000d84:    fbb1f2f0    ....    UDIV     r2,r1,r0
        0x00000d88:    e001        ..      B        0xd8e ; SystemCoreClockUpdate + 110
        0x00000d8a:    f44f4200    O..B    MOV      r2,#0x8000
        0x00000d8e:    f849200c    I..     STR      r2,[r9,r12]
        0x00000d92:    f04f4080    O..@    MOV      r0,#0x40000000
        0x00000d96:    6800        .h      LDR      r0,[r0,#0]
        0x00000d98:    0780        ..      LSLS     r0,r0,#30
        0x00000d9a:    d504        ..      BPL      0xda6 ; SystemCoreClockUpdate + 134
        0x00000d9c:    f859000c    Y...    LDR      r0,[r9,r12]
        0x00000da0:    08c1        ..      LSRS     r1,r0,#3
        0x00000da2:    f849100c    I...    STR      r1,[r9,r12]
        0x00000da6:    f859000c    Y...    LDR      r0,[r9,r12]
        0x00000daa:    f64d6183    M..a    MOV      r1,#0xde83
        0x00000dae:    f2c4311b    ...1    MOVT     r1,#0x431b
        0x00000db2:    fba01201    ....    UMULL    r1,r2,r0,r1
        0x00000db6:    0c91        ..      LSRS     r1,r2,#18
        0x00000db8:    f2442240    D.@"    MOV      r2,#0x4240
        0x00000dbc:    f2c0020f    ....    MOVT     r2,#0xf
        0x00000dc0:    4290        .B      CMP      r0,r2
        0x00000dc2:    bf38        8.      IT       CC
        0x00000dc4:    2101        .!      MOVCC    r1,#1
        0x00000dc6:    f2400004    @...    MOVW     r0,#4
        0x00000dca:    f2c00000    ....    MOVT     r0,#0
        0x00000dce:    f8491000    I...    STR      r1,[r9,r0]
        0x00000dd2:    4770        pG      BX       lr
    SystemInit
        0x00000dd4:    b510        ..      PUSH     {r4,lr}
        0x00000dd6:    b082        ..      SUB      sp,sp,#8
        0x00000dd8:    200c        .       MOVS     r0,#0xc
        0x00000dda:    f2c40000    ....    MOVT     r0,#0x4000
        0x00000dde:    6801        .h      LDR      r1,[r0,#0]
        0x00000de0:    2400        .$      MOVS     r4,#0
        0x00000de2:    f4416180    A..a    ORR      r1,r1,#0x400
        0x00000de6:    6001        .`      STR      r1,[r0,#0]
        0x00000de8:    2000        .       MOVS     r0,#0
        0x00000dea:    f000f83f    ..?.    BL       LDO_1V8_On ; 0xe6c
        0x00000dee:    2096        .       MOVS     r0,#0x96
        0x00000df0:    f7ffff64    ..d.    BL       Flash_Param_at_xMHz ; 0xcbc
        0x00000df4:    2000        .       MOVS     r0,#0
        0x00000df6:    2102        .!      MOVS     r1,#2
        0x00000df8:    221e        ."      MOVS     r2,#0x1e
        0x00000dfa:    2302        .#      MOVS     r3,#2
        0x00000dfc:    9400        ..      STR      r4,[sp,#0]
        0x00000dfe:    f000f86b    ..k.    BL       switchToPLL ; 0xed8
        0x00000e02:    f7ffff8d    ....    BL       SystemCoreClockUpdate ; 0xd20
        0x00000e06:    f2400004    @...    MOVW     r0,#4
        0x00000e0a:    f2c00000    ....    MOVT     r0,#0
        0x00000e0e:    f8590000    Y...    LDR      r0,[r9,r0]
        0x00000e12:    f7ffff53    ..S.    BL       Flash_Param_at_xMHz ; 0xcbc
        0x00000e16:    f645000c    E...    MOV      r0,#0x580c
        0x00000e1a:    f2c40004    ....    MOVT     r0,#0x4004
        0x00000e1e:    f2403168    @.h1    MOVW     r1,#0x368
        0x00000e22:    f2c00100    ....    MOVT     r1,#0
        0x00000e26:    6800        .h      LDR      r0,[r0,#0]
        0x00000e28:    4479        yD      ADD      r1,r1,pc
        0x00000e2a:    680a        .h      LDR      r2,[r1,#0]
        0x00000e2c:    f0404000    @..@    ORR      r0,r0,#0x80000000
        0x00000e30:    f64f71ac    O..q    MOV      r1,#0xffac
        0x00000e34:    f0400001    @...    ORR      r0,r0,#1
        0x00000e38:    f6c03111    ...1    MOVT     r1,#0xb11
        0x00000e3c:    4790        .G      BLX      r2
        0x00000e3e:    f2401010    @...    MOVW     r0,#0x110
        0x00000e42:    f2c4000a    ....    MOVT     r0,#0x400a
        0x00000e46:    f8d01110    ....    LDR      r1,[r0,#0x110]
        0x00000e4a:    f0210120    !. .    BIC      r1,r1,#0x20
        0x00000e4e:    f8c01110    ....    STR      r1,[r0,#0x110]
        0x00000e52:    f8d01100    ....    LDR      r1,[r0,#0x100]
        0x00000e56:    f4217180    !..q    BIC      r1,r1,#0x100
        0x00000e5a:    f8c01100    ....    STR      r1,[r0,#0x100]
        0x00000e5e:    6801        .h      LDR      r1,[r0,#0]
        0x00000e60:    f42161c0    !..a    BIC      r1,r1,#0x600
        0x00000e64:    6001        .`      STR      r1,[r0,#0]
        0x00000e66:    b002        ..      ADD      sp,sp,#8
        0x00000e68:    bd10        ..      POP      {r4,pc}
        0x00000e6a:    bf00        ..      NOP      
    LDO_1V8_On
        0x00000e6c:    210c        .!      MOVS     r1,#0xc
        0x00000e6e:    f2c40100    ....    MOVT     r1,#0x4000
        0x00000e72:    680a        .h      LDR      r2,[r1,#0]
        0x00000e74:    2801        .(      CMP      r0,#1
        0x00000e76:    f64300a8    C...    MOV      r0,#0x38a8
        0x00000e7a:    f0420240    B.@.    ORR      r2,r2,#0x40
        0x00000e7e:    f2c4000a    ....    MOVT     r0,#0x400a
        0x00000e82:    600a        .`      STR      r2,[r1,#0]
        0x00000e84:    d104        ..      BNE      0xe90 ; LDO_1V8_On + 36
        0x00000e86:    6801        .h      LDR      r1,[r0,#0]
        0x00000e88:    f0410101    A...    ORR      r1,r1,#1
        0x00000e8c:    6001        .`      STR      r1,[r0,#0]
        0x00000e8e:    e007        ..      B        0xea0 ; LDO_1V8_On + 52
        0x00000e90:    f6450100    E...    MOVW     r1,#0x5800
        0x00000e94:    f2c4010a    ....    MOVT     r1,#0x400a
        0x00000e98:    680a        .h      LDR      r2,[r1,#0]
        0x00000e9a:    f0420202    B...    ORR      r2,r2,#2
        0x00000e9e:    600a        .`      STR      r2,[r1,#0]
        0x00000ea0:    f2400104    @...    MOVW     r1,#4
        0x00000ea4:    f2c00100    ....    MOVT     r1,#0
        0x00000ea8:    f8592001    Y..     LDR      r2,[r9,r1]
        0x00000eac:    2300        .#      MOVS     r3,#0
        0x00000eae:    eb020282    ....    ADD      r2,r2,r2,LSL #2
        0x00000eb2:    ebb30f42    ..B.    CMP      r3,r2,LSL #1
        0x00000eb6:    d00a        ..      BEQ      0xece ; LDO_1V8_On + 98
        0x00000eb8:    2200        ."      MOVS     r2,#0
        0x00000eba:    bf00        ..      NOP      
        0x00000ebc:    bf00        ..      NOP      
        0x00000ebe:    f8593001    Y..0    LDR      r3,[r9,r1]
        0x00000ec2:    3201        .2      ADDS     r2,#1
        0x00000ec4:    eb030383    ....    ADD      r3,r3,r3,LSL #2
        0x00000ec8:    ebb20f43    ..C.    CMP      r2,r3,LSL #1
        0x00000ecc:    d3f6        ..      BCC      0xebc ; LDO_1V8_On + 80
        0x00000ece:    6841        Ah      LDR      r1,[r0,#4]
        0x00000ed0:    f0410120    A. .    ORR      r1,r1,#0x20
        0x00000ed4:    6041        A`      STR      r1,[r0,#4]
        0x00000ed6:    4770        pG      BX       lr
    switchToPLL
        0x00000ed8:    e92d41f0    -..A    PUSH     {r4-r8,lr}
        0x00000edc:    f6450410    E...    MOV      r4,#0x5810
        0x00000ee0:    4698        .F      MOV      r8,r3
        0x00000ee2:    4615        .F      MOV      r5,r2
        0x00000ee4:    460e        .F      MOV      r6,r1
        0x00000ee6:    4607        .F      MOV      r7,r0
        0x00000ee8:    f2c4040a    ....    MOVT     r4,#0x400a
        0x00000eec:    f000f864    ..d.    BL       switchTo8MHz ; 0xfb8
        0x00000ef0:    b1c7        ..      CBZ      r7,0xf24 ; switchToPLL + 76
        0x00000ef2:    2700        .'      MOVS     r7,#0
        0x00000ef4:    f2c4070a    ....    MOVT     r7,#0x400a
        0x00000ef8:    4638        8F      MOV      r0,r7
        0x00000efa:    2103        .!      MOVS     r1,#3
        0x00000efc:    2207        ."      MOVS     r2,#7
        0x00000efe:    2300        .#      MOVS     r3,#0
        0x00000f00:    f7fff990    ....    BL       PORT_Init ; 0x224
        0x00000f04:    4638        8F      MOV      r0,r7
        0x00000f06:    2104        .!      MOVS     r1,#4
        0x00000f08:    2207        ."      MOVS     r2,#7
        0x00000f0a:    2300        .#      MOVS     r3,#0
        0x00000f0c:    f7fff98a    ....    BL       PORT_Init ; 0x224
        0x00000f10:    f8540c08    T...    LDR      r0,[r4,#-8]
        0x00000f14:    f0400001    @...    ORR      r0,r0,#1
        0x00000f18:    f8440c08    D...    STR      r0,[r4,#-8]
        0x00000f1c:    6820         h      LDR      r0,[r4,#0]
        0x00000f1e:    f0400002    @...    ORR      r0,r0,#2
        0x00000f22:    e008        ..      B        0xf36 ; switchToPLL + 94
        0x00000f24:    f8540c10    T...    LDR      r0,[r4,#-0x10]
        0x00000f28:    f0400001    @...    ORR      r0,r0,#1
        0x00000f2c:    f8440c10    D...    STR      r0,[r4,#-0x10]
        0x00000f30:    6820         h      LDR      r0,[r4,#0]
        0x00000f32:    f0200002     ...    BIC      r0,r0,#2
        0x00000f36:    6020         `      STR      r0,[r4,#0]
        0x00000f38:    6860        `h      LDR      r0,[r4,#4]
        0x00000f3a:    f24c01f8    L...    MOV      r1,#0xc0f8
        0x00000f3e:    f6cf71f8    ...q    MOVT     r1,#0xfff8
        0x00000f42:    4008        .@      ANDS     r0,r0,r1
        0x00000f44:    2100        .!      MOVS     r1,#0
        0x00000f46:    f6cf71ff    ...q    MOVT     r1,#0xffff
        0x00000f4a:    eb014106    ...A    ADD      r1,r1,r6,LSL #16
        0x00000f4e:    6060        ``      STR      r0,[r4,#4]
        0x00000f50:    ea412005    A..     ORR      r0,r1,r5,LSL #8
        0x00000f54:    f1a80101    ....    SUB      r1,r8,#1
        0x00000f58:    6862        bh      LDR      r2,[r4,#4]
        0x00000f5a:    4308        .C      ORRS     r0,r0,r1
        0x00000f5c:    4310        .C      ORRS     r0,r0,r2
        0x00000f5e:    6060        ``      STR      r0,[r4,#4]
        0x00000f60:    6820         h      LDR      r0,[r4,#0]
        0x00000f62:    f0200004     ...    BIC      r0,r0,#4
        0x00000f66:    6020         `      STR      r0,[r4,#0]
        0x00000f68:    6821        !h      LDR      r1,[r4,#0]
        0x00000f6a:    9806        ..      LDR      r0,[sp,#0x18]
        0x00000f6c:    0709        ..      LSLS     r1,r1,#28
        0x00000f6e:    d403        ..      BMI      0xf78 ; switchToPLL + 160
        0x00000f70:    bf00        ..      NOP      
        0x00000f72:    6821        !h      LDR      r1,[r4,#0]
        0x00000f74:    0709        ..      LSLS     r1,r1,#28
        0x00000f76:    d5fb        ..      BPL      0xf70 ; switchToPLL + 152
        0x00000f78:    6821        !h      LDR      r1,[r4,#0]
        0x00000f7a:    2201        ."      MOVS     r2,#1
        0x00000f7c:    f0410101    A...    ORR      r1,r1,#1
        0x00000f80:    6021        !`      STR      r1,[r4,#0]
        0x00000f82:    2104        .!      MOVS     r1,#4
        0x00000f84:    f2c40100    ....    MOVT     r1,#0x4000
        0x00000f88:    600a        .`      STR      r2,[r1,#0]
        0x00000f8a:    f04f4180    O..A    MOV      r1,#0x40000000
        0x00000f8e:    680a        .h      LDR      r2,[r1,#0]
        0x00000f90:    2800        .(      CMP      r0,#0
        0x00000f92:    f022021c    "...    BIC      r2,r2,#0x1c
        0x00000f96:    600a        .`      STR      r2,[r1,#0]
        0x00000f98:    680a        .h      LDR      r2,[r1,#0]
        0x00000f9a:    f0420204    B...    ORR      r2,r2,#4
        0x00000f9e:    600a        .`      STR      r2,[r1,#0]
        0x00000fa0:    680a        .h      LDR      r2,[r1,#0]
        0x00000fa2:    f0220202    "...    BIC      r2,r2,#2
        0x00000fa6:    bf18        ..      IT       NE
        0x00000fa8:    3202        .2      ADDNE    r2,#2
        0x00000faa:    600a        .`      STR      r2,[r1,#0]
        0x00000fac:    6808        .h      LDR      r0,[r1,#0]
        0x00000fae:    f0200001     ...    BIC      r0,r0,#1
        0x00000fb2:    6008        .`      STR      r0,[r1,#0]
        0x00000fb4:    e8bd81f0    ....    POP      {r4-r8,pc}
    switchTo8MHz
        0x00000fb8:    b580        ..      PUSH     {r7,lr}
        0x00000fba:    f6450000    E...    MOVW     r0,#0x5800
        0x00000fbe:    f2c4000a    ....    MOVT     r0,#0x400a
        0x00000fc2:    6801        .h      LDR      r1,[r0,#0]
        0x00000fc4:    f0410101    A...    ORR      r1,r1,#1
        0x00000fc8:    6001        .`      STR      r1,[r0,#0]
        0x00000fca:    f000f807    ....    BL       delay_3ms ; 0xfdc
        0x00000fce:    f04f4080    O..@    MOV      r0,#0x40000000
        0x00000fd2:    6801        .h      LDR      r1,[r0,#0]
        0x00000fd4:    f0410101    A...    ORR      r1,r1,#1
        0x00000fd8:    6001        .`      STR      r1,[r0,#0]
        0x00000fda:    bd80        ..      POP      {r7,pc}
    delay_3ms
        0x00000fdc:    f04f4080    O..@    MOV      r0,#0x40000000
        0x00000fe0:    6801        .h      LDR      r1,[r0,#0]
        0x00000fe2:    07c9        ..      LSLS     r1,r1,#31
        0x00000fe4:    d110        ..      BNE      0x1008 ; delay_3ms + 44
        0x00000fe6:    6800        .h      LDR      r0,[r0,#0]
        0x00000fe8:    f0100f1c    ....    TST      r0,#0x1c
        0x00000fec:    d006        ..      BEQ      0xffc ; delay_3ms + 32
        0x00000fee:    f04f4080    O..@    MOV      r0,#0x40000000
        0x00000ff2:    6800        .h      LDR      r0,[r0,#0]
        0x00000ff4:    f000001c    ....    AND      r0,r0,#0x1c
        0x00000ff8:    2808        .(      CMP      r0,#8
        0x00000ffa:    d105        ..      BNE      0x1008 ; delay_3ms + 44
        0x00000ffc:    2014        .       MOVS     r0,#0x14
        0x00000ffe:    bf00        ..      NOP      
        0x00001000:    3801        .8      SUBS     r0,#1
        0x00001002:    bf00        ..      NOP      
        0x00001004:    d1fc        ..      BNE      0x1000 ; delay_3ms + 36
        0x00001006:    e004        ..      B        0x1012 ; delay_3ms + 54
        0x00001008:    f6446020    D. `    MOV      r0,#0x4e20
        0x0000100c:    3801        .8      SUBS     r0,#1
        0x0000100e:    bf00        ..      NOP      
        0x00001010:    d1fc        ..      BNE      0x100c ; delay_3ms + 48
        0x00001012:    4770        pG      BX       lr
    switchTo1MHz
        0x00001014:    b510        ..      PUSH     {r4,lr}
        0x00001016:    f7ffffcf    ....    BL       switchTo8MHz ; 0xfb8
        0x0000101a:    2004        .       MOVS     r0,#4
        0x0000101c:    f2c40000    ....    MOVT     r0,#0x4000
        0x00001020:    2101        .!      MOVS     r1,#1
        0x00001022:    6001        .`      STR      r1,[r0,#0]
        0x00001024:    f04f4480    O..D    MOV      r4,#0x40000000
        0x00001028:    6820         h      LDR      r0,[r4,#0]
        0x0000102a:    f020001c     ...    BIC      r0,r0,#0x1c
        0x0000102e:    6020         `      STR      r0,[r4,#0]
        0x00001030:    6820         h      LDR      r0,[r4,#0]
        0x00001032:    f0400010    @...    ORR      r0,r0,#0x10
        0x00001036:    6020         `      STR      r0,[r4,#0]
        0x00001038:    6820         h      LDR      r0,[r4,#0]
        0x0000103a:    f0400002    @...    ORR      r0,r0,#2
        0x0000103e:    6020         `      STR      r0,[r4,#0]
        0x00001040:    f7ffffcc    ....    BL       delay_3ms ; 0xfdc
        0x00001044:    6820         h      LDR      r0,[r4,#0]
        0x00001046:    f0200001     ...    BIC      r0,r0,#1
        0x0000104a:    6020         `      STR      r0,[r4,#0]
        0x0000104c:    bd10        ..      POP      {r4,pc}
        0x0000104e:    bf00        ..      NOP      
    switchToXTAL
        0x00001050:    b5b0        ..      PUSH     {r4,r5,r7,lr}
        0x00001052:    4604        .F      MOV      r4,r0
        0x00001054:    f7ffffb0    ....    BL       switchTo8MHz ; 0xfb8
        0x00001058:    2500        .%      MOVS     r5,#0
        0x0000105a:    f2c4050a    ....    MOVT     r5,#0x400a
        0x0000105e:    4628        (F      MOV      r0,r5
        0x00001060:    2103        .!      MOVS     r1,#3
        0x00001062:    2207        ."      MOVS     r2,#7
        0x00001064:    2300        .#      MOVS     r3,#0
        0x00001066:    f7fff8dd    ....    BL       PORT_Init ; 0x224
        0x0000106a:    4628        (F      MOV      r0,r5
        0x0000106c:    2104        .!      MOVS     r1,#4
        0x0000106e:    2207        ."      MOVS     r2,#7
        0x00001070:    2300        .#      MOVS     r3,#0
        0x00001072:    f7fff8d7    ....    BL       PORT_Init ; 0x224
        0x00001076:    f6450008    E...    MOV      r0,#0x5808
        0x0000107a:    f2c4000a    ....    MOVT     r0,#0x400a
        0x0000107e:    6801        .h      LDR      r1,[r0,#0]
        0x00001080:    f04f4580    O..E    MOV      r5,#0x40000000
        0x00001084:    f0410101    A...    ORR      r1,r1,#1
        0x00001088:    6001        .`      STR      r1,[r0,#0]
        0x0000108a:    2004        .       MOVS     r0,#4
        0x0000108c:    f2c40000    ....    MOVT     r0,#0x4000
        0x00001090:    2101        .!      MOVS     r1,#1
        0x00001092:    6001        .`      STR      r1,[r0,#0]
        0x00001094:    6828        (h      LDR      r0,[r5,#0]
        0x00001096:    2c00        .,      CMP      r4,#0
        0x00001098:    f020001c     ...    BIC      r0,r0,#0x1c
        0x0000109c:    6028        (`      STR      r0,[r5,#0]
        0x0000109e:    6828        (h      LDR      r0,[r5,#0]
        0x000010a0:    f040000c    @...    ORR      r0,r0,#0xc
        0x000010a4:    6028        (`      STR      r0,[r5,#0]
        0x000010a6:    6828        (h      LDR      r0,[r5,#0]
        0x000010a8:    f0200002     ...    BIC      r0,r0,#2
        0x000010ac:    bf18        ..      IT       NE
        0x000010ae:    3002        .0      ADDNE    r0,#2
        0x000010b0:    6028        (`      STR      r0,[r5,#0]
        0x000010b2:    f7ffff93    ....    BL       delay_3ms ; 0xfdc
        0x000010b6:    6828        (h      LDR      r0,[r5,#0]
        0x000010b8:    f0200001     ...    BIC      r0,r0,#1
        0x000010bc:    6028        (`      STR      r0,[r5,#0]
        0x000010be:    bdb0        ..      POP      {r4,r5,r7,pc}
    switchTo32KHz
        0x000010c0:    b510        ..      PUSH     {r4,lr}
        0x000010c2:    f7ffff79    ..y.    BL       switchTo8MHz ; 0xfb8
        0x000010c6:    f6450000    E...    MOVW     r0,#0x5800
        0x000010ca:    f2c4000a    ....    MOVT     r0,#0x400a
        0x000010ce:    6801        .h      LDR      r1,[r0,#0]
        0x000010d0:    f04f4480    O..D    MOV      r4,#0x40000000
        0x000010d4:    f0410102    A...    ORR      r1,r1,#2
        0x000010d8:    6001        .`      STR      r1,[r0,#0]
        0x000010da:    2004        .       MOVS     r0,#4
        0x000010dc:    f2c40000    ....    MOVT     r0,#0x4000
        0x000010e0:    2101        .!      MOVS     r1,#1
        0x000010e2:    6001        .`      STR      r1,[r0,#0]
        0x000010e4:    6820         h      LDR      r0,[r4,#0]
        0x000010e6:    f020001c     ...    BIC      r0,r0,#0x1c
        0x000010ea:    6020         `      STR      r0,[r4,#0]
        0x000010ec:    6820         h      LDR      r0,[r4,#0]
        0x000010ee:    6020         `      STR      r0,[r4,#0]
        0x000010f0:    6820         h      LDR      r0,[r4,#0]
        0x000010f2:    f0200002     ...    BIC      r0,r0,#2
        0x000010f6:    6020         `      STR      r0,[r4,#0]
        0x000010f8:    f7ffff70    ..p.    BL       delay_3ms ; 0xfdc
        0x000010fc:    6820         h      LDR      r0,[r4,#0]
        0x000010fe:    f0200001     ...    BIC      r0,r0,#1
        0x00001102:    6020         `      STR      r0,[r4,#0]
        0x00001104:    bd10        ..      POP      {r4,pc}
        0x00001106:    bf00        ..      NOP      
    switchToXTAL_32K
        0x00001108:    b510        ..      PUSH     {r4,lr}
        0x0000110a:    f7ffff55    ..U.    BL       switchTo8MHz ; 0xfb8
        0x0000110e:    240c        .$      MOVS     r4,#0xc
        0x00001110:    f2c40400    ....    MOVT     r4,#0x4000
        0x00001114:    6820         h      LDR      r0,[r4,#0]
        0x00001116:    f0400040    @.@.    ORR      r0,r0,#0x40
        0x0000111a:    6020         `      STR      r0,[r4,#0]
        0x0000111c:    f000f822    ..".    BL       RTC_unlock ; 0x1164
        0x00001120:    f64300a8    C...    MOV      r0,#0x38a8
        0x00001124:    f2c4000a    ....    MOVT     r0,#0x400a
        0x00001128:    6801        .h      LDR      r1,[r0,#0]
        0x0000112a:    f0410101    A...    ORR      r1,r1,#1
        0x0000112e:    6001        .`      STR      r1,[r0,#0]
        0x00001130:    f000f828    ..(.    BL       RTC_lock ; 0x1184
        0x00001134:    2001        .       MOVS     r0,#1
        0x00001136:    f8440c08    D...    STR      r0,[r4,#-8]
        0x0000113a:    f04f4480    O..D    MOV      r4,#0x40000000
        0x0000113e:    6820         h      LDR      r0,[r4,#0]
        0x00001140:    f020001c     ...    BIC      r0,r0,#0x1c
        0x00001144:    6020         `      STR      r0,[r4,#0]
        0x00001146:    6820         h      LDR      r0,[r4,#0]
        0x00001148:    f0400008    @...    ORR      r0,r0,#8
        0x0000114c:    6020         `      STR      r0,[r4,#0]
        0x0000114e:    6820         h      LDR      r0,[r4,#0]
        0x00001150:    f0200002     ...    BIC      r0,r0,#2
        0x00001154:    6020         `      STR      r0,[r4,#0]
        0x00001156:    f7ffff41    ..A.    BL       delay_3ms ; 0xfdc
        0x0000115a:    6820         h      LDR      r0,[r4,#0]
        0x0000115c:    f0200001     ...    BIC      r0,r0,#1
        0x00001160:    6020         `      STR      r0,[r4,#0]
        0x00001162:    bd10        ..      POP      {r4,pc}
    RTC_unlock
        0x00001164:    2030        0       MOVS     r0,#0x30
        0x00001166:    f2c40000    ....    MOVT     r0,#0x4000
        0x0000116a:    6801        .h      LDR      r1,[r0,#0]
        0x0000116c:    f0410102    A...    ORR      r1,r1,#2
        0x00001170:    6001        .`      STR      r1,[r0,#0]
        0x00001172:    f6430024    C.$.    MOV      r0,#0x3824
        0x00001176:    f2c4000a    ....    MOVT     r0,#0x400a
        0x0000117a:    21ca        .!      MOVS     r1,#0xca
        0x0000117c:    6001        .`      STR      r1,[r0,#0]
        0x0000117e:    2153        S!      MOVS     r1,#0x53
        0x00001180:    6001        .`      STR      r1,[r0,#0]
        0x00001182:    4770        pG      BX       lr
    RTC_lock
        0x00001184:    f6430024    C.$.    MOV      r0,#0x3824
        0x00001188:    f2c4000a    ....    MOVT     r0,#0x400a
        0x0000118c:    2100        .!      MOVS     r1,#0
        0x0000118e:    6001        .`      STR      r1,[r0,#0]
        0x00001190:    4770        pG      BX       lr
        0x00001192:    0000        ..      MOVS     r0,r0
    $d.realdata
    IAP_Cache_Config
        0x00001194:    01000621    !...    DCD    16778785
    IAP_Flash_Erase
        0x00001198:    01000401    ....    DCD    16778241
    IAP_Flash_Param
        0x0000119c:    01000521    !...    DCD    16778529
    IAP_Flash_ParamTAC
        0x000011a0:    01000561    a...    DCD    16778593
    IAP_Flash_Write
        0x000011a4:    01000481    ....    DCD    16778369

** Section #2 'PrgData' (SHT_PROGBITS) [SHF_ALLOC + SHF_WRITE]
    Size   : 12 bytes (alignment 4)
    Address: 0x000011a8


** Section #3 'PrgData' (SHT_NOBITS) [SHF_ALLOC + SHF_WRITE]
    Size   : 4 bytes
    Address: 0x000011b4


** Section #4 'DevDscr' (SHT_PROGBITS) [SHF_ALLOC + SHF_EXECINSTR]
    Size   : 4256 bytes (alignment 4)
    Address: 0x000011b4

    $d.realdata
    FlashDevice
        0x000011b4:    57530101    ..SW    DCD    1465057537
        0x000011b8:    3033334d    M330    DCD    808661837
        0x000011bc:    50535120     QSP    DCD    1347637536
        0x000011c0:    4e203049    I0 N    DCD    1310732361
        0x000011c4:    0000524f    OR..    DCD    21071
        0x000011c8:    00000000    ....    DCD    0
        0x000011cc:    00000000    ....    DCD    0
        0x000011d0:    00000000    ....    DCD    0
        0x000011d4:    00000000    ....    DCD    0
        0x000011d8:    00000000    ....    DCD    0
        0x000011dc:    00000000    ....    DCD    0
        0x000011e0:    00000000    ....    DCD    0
        0x000011e4:    00000000    ....    DCD    0
        0x000011e8:    00000000    ....    DCD    0
        0x000011ec:    00000000    ....    DCD    0
        0x000011f0:    00000000    ....    DCD    0
        0x000011f4:    00000000    ....    DCD    0
        0x000011f8:    00000000    ....    DCD    0
        0x000011fc:    00000000    ....    DCD    0
        0x00001200:    00000000    ....    DCD    0
        0x00001204:    00000000    ....    DCD    0
        0x00001208:    00000000    ....    DCD    0
        0x0000120c:    00000000    ....    DCD    0
        0x00001210:    00000000    ....    DCD    0
        0x00001214:    00000000    ....    DCD    0
        0x00001218:    00000000    ....    DCD    0
        0x0000121c:    00000000    ....    DCD    0
        0x00001220:    00000000    ....    DCD    0
        0x00001224:    00000000    ....    DCD    0
        0x00001228:    00000000    ....    DCD    0
        0x0000122c:    00000000    ....    DCD    0
        0x00001230:    00000000    ....    DCD    0
        0x00001234:    00010000    ....    DCD    65536
        0x00001238:    70000000    ...p    DCD    1879048192
        0x0000123c:    01000000    ....    DCD    16777216
        0x00001240:    00001000    ....    DCD    4096
        0x00001244:    00000000    ....    DCD    0
        0x00001248:    000000ff    ....    DCD    255
        0x0000124c:    000003e8    ....    DCD    1000
        0x00001250:    000007d0    ....    DCD    2000
        0x00001254:    00010000    ....    DCD    65536
        0x00001258:    00000000    ....    DCD    0
        0x0000125c:    ffffffff    ....    DCD    4294967295
        0x00001260:    ffffffff    ....    DCD    4294967295
        0x00001264:    00000000    ....    DCD    0
        0x00001268:    00000000    ....    DCD    0
        0x0000126c:    00000000    ....    DCD    0
        0x00001270:    00000000    ....    DCD    0
        0x00001274:    00000000    ....    DCD    0
        0x00001278:    00000000    ....    DCD    0
        0x0000127c:    00000000    ....    DCD    0
        0x00001280:    00000000    ....    DCD    0
        0x00001284:    00000000    ....    DCD    0
        0x00001288:    00000000    ....    DCD    0
        0x0000128c:    00000000    ....    DCD    0
        0x00001290:    00000000    ....    DCD    0
        0x00001294:    00000000    ....    DCD    0
        0x00001298:    00000000    ....    DCD    0
        0x0000129c:    00000000    ....    DCD    0
        0x000012a0:    00000000    ....    DCD    0
        0x000012a4:    00000000    ....    DCD    0
        0x000012a8:    00000000    ....    DCD    0
        0x000012ac:    00000000    ....    DCD    0
        0x000012b0:    00000000    ....    DCD    0
        0x000012b4:    00000000    ....    DCD    0
        0x000012b8:    00000000    ....    DCD    0
        0x000012bc:    00000000    ....    DCD    0
        0x000012c0:    00000000    ....    DCD    0
        0x000012c4:    00000000    ....    DCD    0
        0x000012c8:    00000000    ....    DCD    0
        0x000012cc:    00000000    ....    DCD    0
        0x000012d0:    00000000    ....    DCD    0
        0x000012d4:    00000000    ....    DCD    0
        0x000012d8:    00000000    ....    DCD    0
        0x000012dc:    00000000    ....    DCD    0
        0x000012e0:    00000000    ....    DCD    0
        0x000012e4:    00000000    ....    DCD    0
        0x000012e8:    00000000    ....    DCD    0
        0x000012ec:    00000000    ....    DCD    0
        0x000012f0:    00000000    ....    DCD    0
        0x000012f4:    00000000    ....    DCD    0
        0x000012f8:    00000000    ....    DCD    0
        0x000012fc:    00000000    ....    DCD    0
        0x00001300:    00000000    ....    DCD    0
        0x00001304:    00000000    ....    DCD    0
        0x00001308:    00000000    ....    DCD    0
        0x0000130c:    00000000    ....    DCD    0
        0x00001310:    00000000    ....    DCD    0
        0x00001314:    00000000    ....    DCD    0
        0x00001318:    00000000    ....    DCD    0
        0x0000131c:    00000000    ....    DCD    0
        0x00001320:    00000000    ....    DCD    0
        0x00001324:    00000000    ....    DCD    0
        0x00001328:    00000000    ....    DCD    0
        0x0000132c:    00000000    ....    DCD    0
        0x00001330:    00000000    ....    DCD    0
        0x00001334:    00000000    ....    DCD    0
        0x00001338:    00000000    ....    DCD    0
        0x0000133c:    00000000    ....    DCD    0
        0x00001340:    00000000    ....    DCD    0
        0x00001344:    00000000    ....    DCD    0
        0x00001348:    00000000    ....    DCD    0
        0x0000134c:    00000000    ....    DCD    0
        0x00001350:    00000000    ....    DCD    0
        0x00001354:    00000000    ....    DCD    0
        0x00001358:    00000000    ....    DCD    0
        0x0000135c:    00000000    ....    DCD    0
        0x00001360:    00000000    ....    DCD    0
        0x00001364:    00000000    ....    DCD    0
        0x00001368:    00000000    ....    DCD    0
        0x0000136c:    00000000    ....    DCD    0
        0x00001370:    00000000    ....    DCD    0
        0x00001374:    00000000    ....    DCD    0
        0x00001378:    00000000    ....    DCD    0
        0x0000137c:    00000000    ....    DCD    0
        0x00001380:    00000000    ....    DCD    0
        0x00001384:    00000000    ....    DCD    0
        0x00001388:    00000000    ....    DCD    0
        0x0000138c:    00000000    ....    DCD    0
        0x00001390:    00000000    ....    DCD    0
        0x00001394:    00000000    ....    DCD    0
        0x00001398:    00000000    ....    DCD    0
        0x0000139c:    00000000    ....    DCD    0
        0x000013a0:    00000000    ....    DCD    0
        0x000013a4:    00000000    ....    DCD    0
        0x000013a8:    00000000    ....    DCD    0
        0x000013ac:    00000000    ....    DCD    0
        0x000013b0:    00000000    ....    DCD    0
        0x000013b4:    00000000    ....    DCD    0
        0x000013b8:    00000000    ....    DCD    0
        0x000013bc:    00000000    ....    DCD    0
        0x000013c0:    00000000    ....    DCD    0
        0x000013c4:    00000000    ....    DCD    0
        0x000013c8:    00000000    ....    DCD    0
        0x000013cc:    00000000    ....    DCD    0
        0x000013d0:    00000000    ....    DCD    0
        0x000013d4:    00000000    ....    DCD    0
        0x000013d8:    00000000    ....    DCD    0
        0x000013dc:    00000000    ....    DCD    0
        0x000013e0:    00000000    ....    DCD    0
        0x000013e4:    00000000    ....    DCD    0
        0x000013e8:    00000000    ....    DCD    0
        0x000013ec:    00000000    ....    DCD    0
        0x000013f0:    00000000    ....    DCD    0
        0x000013f4:    00000000    ....    DCD    0
        0x000013f8:    00000000    ....    DCD    0
        0x000013fc:    00000000    ....    DCD    0
        0x00001400:    00000000    ....    DCD    0
        0x00001404:    00000000    ....    DCD    0
        0x00001408:    00000000    ....    DCD    0
        0x0000140c:    00000000    ....    DCD    0
        0x00001410:    00000000    ....    DCD    0
        0x00001414:    00000000    ....    DCD    0
        0x00001418:    00000000    ....    DCD    0
        0x0000141c:    00000000    ....    DCD    0
        0x00001420:    00000000    ....    DCD    0
        0x00001424:    00000000    ....    DCD    0
        0x00001428:    00000000    ....    DCD    0
        0x0000142c:    00000000    ....    DCD    0
        0x00001430:    00000000    ....    DCD    0
        0x00001434:    00000000    ....    DCD    0
        0x00001438:    00000000    ....    DCD    0
        0x0000143c:    00000000    ....    DCD    0
        0x00001440:    00000000    ....    DCD    0
        0x00001444:    00000000    ....    DCD    0
        0x00001448:    00000000    ....    DCD    0
        0x0000144c:    00000000    ....    DCD    0
        0x00001450:    00000000    ....    DCD    0
        0x00001454:    00000000    ....    DCD    0
        0x00001458:    00000000    ....    DCD    0
        0x0000145c:    00000000    ....    DCD    0
        0x00001460:    00000000    ....    DCD    0
        0x00001464:    00000000    ....    DCD    0
        0x00001468:    00000000    ....    DCD    0
        0x0000146c:    00000000    ....    DCD    0
        0x00001470:    00000000    ....    DCD    0
        0x00001474:    00000000    ....    DCD    0
        0x00001478:    00000000    ....    DCD    0
        0x0000147c:    00000000    ....    DCD    0
        0x00001480:    00000000    ....    DCD    0
        0x00001484:    00000000    ....    DCD    0
        0x00001488:    00000000    ....    DCD    0
        0x0000148c:    00000000    ....    DCD    0
        0x00001490:    00000000    ....    DCD    0
        0x00001494:    00000000    ....    DCD    0
        0x00001498:    00000000    ....    DCD    0
        0x0000149c:    00000000    ....    DCD    0
        0x000014a0:    00000000    ....    DCD    0
        0x000014a4:    00000000    ....    DCD    0
        0x000014a8:    00000000    ....    DCD    0
        0x000014ac:    00000000    ....    DCD    0
        0x000014b0:    00000000    ....    DCD    0
        0x000014b4:    00000000    ....    DCD    0
        0x000014b8:    00000000    ....    DCD    0
        0x000014bc:    00000000    ....    DCD    0
        0x000014c0:    00000000    ....    DCD    0
        0x000014c4:    00000000    ....    DCD    0
        0x000014c8:    00000000    ....    DCD    0
        0x000014cc:    00000000    ....    DCD    0
        0x000014d0:    00000000    ....    DCD    0
        0x000014d4:    00000000    ....    DCD    0
        0x000014d8:    00000000    ....    DCD    0
        0x000014dc:    00000000    ....    DCD    0
        0x000014e0:    00000000    ....    DCD    0
        0x000014e4:    00000000    ....    DCD    0
        0x000014e8:    00000000    ....    DCD    0
        0x000014ec:    00000000    ....    DCD    0
        0x000014f0:    00000000    ....    DCD    0
        0x000014f4:    00000000    ....    DCD    0
        0x000014f8:    00000000    ....    DCD    0
        0x000014fc:    00000000    ....    DCD    0
        0x00001500:    00000000    ....    DCD    0
        0x00001504:    00000000    ....    DCD    0
        0x00001508:    00000000    ....    DCD    0
        0x0000150c:    00000000    ....    DCD    0
        0x00001510:    00000000    ....    DCD    0
        0x00001514:    00000000    ....    DCD    0
        0x00001518:    00000000    ....    DCD    0
        0x0000151c:    00000000    ....    DCD    0
        0x00001520:    00000000    ....    DCD    0
        0x00001524:    00000000    ....    DCD    0
        0x00001528:    00000000    ....    DCD    0
        0x0000152c:    00000000    ....    DCD    0
        0x00001530:    00000000    ....    DCD    0
        0x00001534:    00000000    ....    DCD    0
        0x00001538:    00000000    ....    DCD    0
        0x0000153c:    00000000    ....    DCD    0
        0x00001540:    00000000    ....    DCD    0
        0x00001544:    00000000    ....    DCD    0
        0x00001548:    00000000    ....    DCD    0
        0x0000154c:    00000000    ....    DCD    0
        0x00001550:    00000000    ....    DCD    0
        0x00001554:    00000000    ....    DCD    0
        0x00001558:    00000000    ....    DCD    0
        0x0000155c:    00000000    ....    DCD    0
        0x00001560:    00000000    ....    DCD    0
        0x00001564:    00000000    ....    DCD    0
        0x00001568:    00000000    ....    DCD    0
        0x0000156c:    00000000    ....    DCD    0
        0x00001570:    00000000    ....    DCD    0
        0x00001574:    00000000    ....    DCD    0
        0x00001578:    00000000    ....    DCD    0
        0x0000157c:    00000000    ....    DCD    0
        0x00001580:    00000000    ....    DCD    0
        0x00001584:    00000000    ....    DCD    0
        0x00001588:    00000000    ....    DCD    0
        0x0000158c:    00000000    ....    DCD    0
        0x00001590:    00000000    ....    DCD    0
        0x00001594:    00000000    ....    DCD    0
        0x00001598:    00000000    ....    DCD    0
        0x0000159c:    00000000    ....    DCD    0
        0x000015a0:    00000000    ....    DCD    0
        0x000015a4:    00000000    ....    DCD    0
        0x000015a8:    00000000    ....    DCD    0
        0x000015ac:    00000000    ....    DCD    0
        0x000015b0:    00000000    ....    DCD    0
        0x000015b4:    00000000    ....    DCD    0
        0x000015b8:    00000000    ....    DCD    0
        0x000015bc:    00000000    ....    DCD    0
        0x000015c0:    00000000    ....    DCD    0
        0x000015c4:    00000000    ....    DCD    0
        0x000015c8:    00000000    ....    DCD    0
        0x000015cc:    00000000    ....    DCD    0
        0x000015d0:    00000000    ....    DCD    0
        0x000015d4:    00000000    ....    DCD    0
        0x000015d8:    00000000    ....    DCD    0
        0x000015dc:    00000000    ....    DCD    0
        0x000015e0:    00000000    ....    DCD    0
        0x000015e4:    00000000    ....    DCD    0
        0x000015e8:    00000000    ....    DCD    0
        0x000015ec:    00000000    ....    DCD    0
        0x000015f0:    00000000    ....    DCD    0
        0x000015f4:    00000000    ....    DCD    0
        0x000015f8:    00000000    ....    DCD    0
        0x000015fc:    00000000    ....    DCD    0
        0x00001600:    00000000    ....    DCD    0
        0x00001604:    00000000    ....    DCD    0
        0x00001608:    00000000    ....    DCD    0
        0x0000160c:    00000000    ....    DCD    0
        0x00001610:    00000000    ....    DCD    0
        0x00001614:    00000000    ....    DCD    0
        0x00001618:    00000000    ....    DCD    0
        0x0000161c:    00000000    ....    DCD    0
        0x00001620:    00000000    ....    DCD    0
        0x00001624:    00000000    ....    DCD    0
        0x00001628:    00000000    ....    DCD    0
        0x0000162c:    00000000    ....    DCD    0
        0x00001630:    00000000    ....    DCD    0
        0x00001634:    00000000    ....    DCD    0
        0x00001638:    00000000    ....    DCD    0
        0x0000163c:    00000000    ....    DCD    0
        0x00001640:    00000000    ....    DCD    0
        0x00001644:    00000000    ....    DCD    0
        0x00001648:    00000000    ....    DCD    0
        0x0000164c:    00000000    ....    DCD    0
        0x00001650:    00000000    ....    DCD    0
        0x00001654:    00000000    ....    DCD    0
        0x00001658:    00000000    ....    DCD    0
        0x0000165c:    00000000    ....    DCD    0
        0x00001660:    00000000    ....    DCD    0
        0x00001664:    00000000    ....    DCD    0
        0x00001668:    00000000    ....    DCD    0
        0x0000166c:    00000000    ....    DCD    0
        0x00001670:    00000000    ....    DCD    0
        0x00001674:    00000000    ....    DCD    0
        0x00001678:    00000000    ....    DCD    0
        0x0000167c:    00000000    ....    DCD    0
        0x00001680:    00000000    ....    DCD    0
        0x00001684:    00000000    ....    DCD    0
        0x00001688:    00000000    ....    DCD    0
        0x0000168c:    00000000    ....    DCD    0
        0x00001690:    00000000    ....    DCD    0
        0x00001694:    00000000    ....    DCD    0
        0x00001698:    00000000    ....    DCD    0
        0x0000169c:    00000000    ....    DCD    0
        0x000016a0:    00000000    ....    DCD    0
        0x000016a4:    00000000    ....    DCD    0
        0x000016a8:    00000000    ....    DCD    0
        0x000016ac:    00000000    ....    DCD    0
        0x000016b0:    00000000    ....    DCD    0
        0x000016b4:    00000000    ....    DCD    0
        0x000016b8:    00000000    ....    DCD    0
        0x000016bc:    00000000    ....    DCD    0
        0x000016c0:    00000000    ....    DCD    0
        0x000016c4:    00000000    ....    DCD    0
        0x000016c8:    00000000    ....    DCD    0
        0x000016cc:    00000000    ....    DCD    0
        0x000016d0:    00000000    ....    DCD    0
        0x000016d4:    00000000    ....    DCD    0
        0x000016d8:    00000000    ....    DCD    0
        0x000016dc:    00000000    ....    DCD    0
        0x000016e0:    00000000    ....    DCD    0
        0x000016e4:    00000000    ....    DCD    0
        0x000016e8:    00000000    ....    DCD    0
        0x000016ec:    00000000    ....    DCD    0
        0x000016f0:    00000000    ....    DCD    0
        0x000016f4:    00000000    ....    DCD    0
        0x000016f8:    00000000    ....    DCD    0
        0x000016fc:    00000000    ....    DCD    0
        0x00001700:    00000000    ....    DCD    0
        0x00001704:    00000000    ....    DCD    0
        0x00001708:    00000000    ....    DCD    0
        0x0000170c:    00000000    ....    DCD    0
        0x00001710:    00000000    ....    DCD    0
        0x00001714:    00000000    ....    DCD    0
        0x00001718:    00000000    ....    DCD    0
        0x0000171c:    00000000    ....    DCD    0
        0x00001720:    00000000    ....    DCD    0
        0x00001724:    00000000    ....    DCD    0
        0x00001728:    00000000    ....    DCD    0
        0x0000172c:    00000000    ....    DCD    0
        0x00001730:    00000000    ....    DCD    0
        0x00001734:    00000000    ....    DCD    0
        0x00001738:    00000000    ....    DCD    0
        0x0000173c:    00000000    ....    DCD    0
        0x00001740:    00000000    ....    DCD    0
        0x00001744:    00000000    ....    DCD    0
        0x00001748:    00000000    ....    DCD    0
        0x0000174c:    00000000    ....    DCD    0
        0x00001750:    00000000    ....    DCD    0
        0x00001754:    00000000    ....    DCD    0
        0x00001758:    00000000    ....    DCD    0
        0x0000175c:    00000000    ....    DCD    0
        0x00001760:    00000000    ....    DCD    0
        0x00001764:    00000000    ....    DCD    0
        0x00001768:    00000000    ....    DCD    0
        0x0000176c:    00000000    ....    DCD    0
        0x00001770:    00000000    ....    DCD    0
        0x00001774:    00000000    ....    DCD    0
        0x00001778:    00000000    ....    DCD    0
        0x0000177c:    00000000    ....    DCD    0
        0x00001780:    00000000    ....    DCD    0
        0x00001784:    00000000    ....    DCD    0
        0x00001788:    00000000    ....    DCD    0
        0x0000178c:    00000000    ....    DCD    0
        0x00001790:    00000000    ....    DCD    0
        0x00001794:    00000000    ....    DCD    0
        0x00001798:    00000000    ....    DCD    0
        0x0000179c:    00000000    ....    DCD    0
        0x000017a0:    00000000    ....    DCD    0
        0x000017a4:    00000000    ....    DCD    0
        0x000017a8:    00000000    ....    DCD    0
        0x000017ac:    00000000    ....    DCD    0
        0x000017b0:    00000000    ....    DCD    0
        0x000017b4:    00000000    ....    DCD    0
        0x000017b8:    00000000    ....    DCD    0
        0x000017bc:    00000000    ....    DCD    0
        0x000017c0:    00000000    ....    DCD    0
        0x000017c4:    00000000    ....    DCD    0
        0x000017c8:    00000000    ....    DCD    0
        0x000017cc:    00000000    ....    DCD    0
        0x000017d0:    00000000    ....    DCD    0
        0x000017d4:    00000000    ....    DCD    0
        0x000017d8:    00000000    ....    DCD    0
        0x000017dc:    00000000    ....    DCD    0
        0x000017e0:    00000000    ....    DCD    0
        0x000017e4:    00000000    ....    DCD    0
        0x000017e8:    00000000    ....    DCD    0
        0x000017ec:    00000000    ....    DCD    0
        0x000017f0:    00000000    ....    DCD    0
        0x000017f4:    00000000    ....    DCD    0
        0x000017f8:    00000000    ....    DCD    0
        0x000017fc:    00000000    ....    DCD    0
        0x00001800:    00000000    ....    DCD    0
        0x00001804:    00000000    ....    DCD    0
        0x00001808:    00000000    ....    DCD    0
        0x0000180c:    00000000    ....    DCD    0
        0x00001810:    00000000    ....    DCD    0
        0x00001814:    00000000    ....    DCD    0
        0x00001818:    00000000    ....    DCD    0
        0x0000181c:    00000000    ....    DCD    0
        0x00001820:    00000000    ....    DCD    0
        0x00001824:    00000000    ....    DCD    0
        0x00001828:    00000000    ....    DCD    0
        0x0000182c:    00000000    ....    DCD    0
        0x00001830:    00000000    ....    DCD    0
        0x00001834:    00000000    ....    DCD    0
        0x00001838:    00000000    ....    DCD    0
        0x0000183c:    00000000    ....    DCD    0
        0x00001840:    00000000    ....    DCD    0
        0x00001844:    00000000    ....    DCD    0
        0x00001848:    00000000    ....    DCD    0
        0x0000184c:    00000000    ....    DCD    0
        0x00001850:    00000000    ....    DCD    0
        0x00001854:    00000000    ....    DCD    0
        0x00001858:    00000000    ....    DCD    0
        0x0000185c:    00000000    ....    DCD    0
        0x00001860:    00000000    ....    DCD    0
        0x00001864:    00000000    ....    DCD    0
        0x00001868:    00000000    ....    DCD    0
        0x0000186c:    00000000    ....    DCD    0
        0x00001870:    00000000    ....    DCD    0
        0x00001874:    00000000    ....    DCD    0
        0x00001878:    00000000    ....    DCD    0
        0x0000187c:    00000000    ....    DCD    0
        0x00001880:    00000000    ....    DCD    0
        0x00001884:    00000000    ....    DCD    0
        0x00001888:    00000000    ....    DCD    0
        0x0000188c:    00000000    ....    DCD    0
        0x00001890:    00000000    ....    DCD    0
        0x00001894:    00000000    ....    DCD    0
        0x00001898:    00000000    ....    DCD    0
        0x0000189c:    00000000    ....    DCD    0
        0x000018a0:    00000000    ....    DCD    0
        0x000018a4:    00000000    ....    DCD    0
        0x000018a8:    00000000    ....    DCD    0
        0x000018ac:    00000000    ....    DCD    0
        0x000018b0:    00000000    ....    DCD    0
        0x000018b4:    00000000    ....    DCD    0
        0x000018b8:    00000000    ....    DCD    0
        0x000018bc:    00000000    ....    DCD    0
        0x000018c0:    00000000    ....    DCD    0
        0x000018c4:    00000000    ....    DCD    0
        0x000018c8:    00000000    ....    DCD    0
        0x000018cc:    00000000    ....    DCD    0
        0x000018d0:    00000000    ....    DCD    0
        0x000018d4:    00000000    ....    DCD    0
        0x000018d8:    00000000    ....    DCD    0
        0x000018dc:    00000000    ....    DCD    0
        0x000018e0:    00000000    ....    DCD    0
        0x000018e4:    00000000    ....    DCD    0
        0x000018e8:    00000000    ....    DCD    0
        0x000018ec:    00000000    ....    DCD    0
        0x000018f0:    00000000    ....    DCD    0
        0x000018f4:    00000000    ....    DCD    0
        0x000018f8:    00000000    ....    DCD    0
        0x000018fc:    00000000    ....    DCD    0
        0x00001900:    00000000    ....    DCD    0
        0x00001904:    00000000    ....    DCD    0
        0x00001908:    00000000    ....    DCD    0
        0x0000190c:    00000000    ....    DCD    0
        0x00001910:    00000000    ....    DCD    0
        0x00001914:    00000000    ....    DCD    0
        0x00001918:    00000000    ....    DCD    0
        0x0000191c:    00000000    ....    DCD    0
        0x00001920:    00000000    ....    DCD    0
        0x00001924:    00000000    ....    DCD    0
        0x00001928:    00000000    ....    DCD    0
        0x0000192c:    00000000    ....    DCD    0
        0x00001930:    00000000    ....    DCD    0
        0x00001934:    00000000    ....    DCD    0
        0x00001938:    00000000    ....    DCD    0
        0x0000193c:    00000000    ....    DCD    0
        0x00001940:    00000000    ....    DCD    0
        0x00001944:    00000000    ....    DCD    0
        0x00001948:    00000000    ....    DCD    0
        0x0000194c:    00000000    ....    DCD    0
        0x00001950:    00000000    ....    DCD    0
        0x00001954:    00000000    ....    DCD    0
        0x00001958:    00000000    ....    DCD    0
        0x0000195c:    00000000    ....    DCD    0
        0x00001960:    00000000    ....    DCD    0
        0x00001964:    00000000    ....    DCD    0
        0x00001968:    00000000    ....    DCD    0
        0x0000196c:    00000000    ....    DCD    0
        0x00001970:    00000000    ....    DCD    0
        0x00001974:    00000000    ....    DCD    0
        0x00001978:    00000000    ....    DCD    0
        0x0000197c:    00000000    ....    DCD    0
        0x00001980:    00000000    ....    DCD    0
        0x00001984:    00000000    ....    DCD    0
        0x00001988:    00000000    ....    DCD    0
        0x0000198c:    00000000    ....    DCD    0
        0x00001990:    00000000    ....    DCD    0
        0x00001994:    00000000    ....    DCD    0
        0x00001998:    00000000    ....    DCD    0
        0x0000199c:    00000000    ....    DCD    0
        0x000019a0:    00000000    ....    DCD    0
        0x000019a4:    00000000    ....    DCD    0
        0x000019a8:    00000000    ....    DCD    0
        0x000019ac:    00000000    ....    DCD    0
        0x000019b0:    00000000    ....    DCD    0
        0x000019b4:    00000000    ....    DCD    0
        0x000019b8:    00000000    ....    DCD    0
        0x000019bc:    00000000    ....    DCD    0
        0x000019c0:    00000000    ....    DCD    0
        0x000019c4:    00000000    ....    DCD    0
        0x000019c8:    00000000    ....    DCD    0
        0x000019cc:    00000000    ....    DCD    0
        0x000019d0:    00000000    ....    DCD    0
        0x000019d4:    00000000    ....    DCD    0
        0x000019d8:    00000000    ....    DCD    0
        0x000019dc:    00000000    ....    DCD    0
        0x000019e0:    00000000    ....    DCD    0
        0x000019e4:    00000000    ....    DCD    0
        0x000019e8:    00000000    ....    DCD    0
        0x000019ec:    00000000    ....    DCD    0
        0x000019f0:    00000000    ....    DCD    0
        0x000019f4:    00000000    ....    DCD    0
        0x000019f8:    00000000    ....    DCD    0
        0x000019fc:    00000000    ....    DCD    0
        0x00001a00:    00000000    ....    DCD    0
        0x00001a04:    00000000    ....    DCD    0
        0x00001a08:    00000000    ....    DCD    0
        0x00001a0c:    00000000    ....    DCD    0
        0x00001a10:    00000000    ....    DCD    0
        0x00001a14:    00000000    ....    DCD    0
        0x00001a18:    00000000    ....    DCD    0
        0x00001a1c:    00000000    ....    DCD    0
        0x00001a20:    00000000    ....    DCD    0
        0x00001a24:    00000000    ....    DCD    0
        0x00001a28:    00000000    ....    DCD    0
        0x00001a2c:    00000000    ....    DCD    0
        0x00001a30:    00000000    ....    DCD    0
        0x00001a34:    00000000    ....    DCD    0
        0x00001a38:    00000000    ....    DCD    0
        0x00001a3c:    00000000    ....    DCD    0
        0x00001a40:    00000000    ....    DCD    0
        0x00001a44:    00000000    ....    DCD    0
        0x00001a48:    00000000    ....    DCD    0
        0x00001a4c:    00000000    ....    DCD    0
        0x00001a50:    00000000    ....    DCD    0
        0x00001a54:    00000000    ....    DCD    0
        0x00001a58:    00000000    ....    DCD    0
        0x00001a5c:    00000000    ....    DCD    0
        0x00001a60:    00000000    ....    DCD    0
        0x00001a64:    00000000    ....    DCD    0
        0x00001a68:    00000000    ....    DCD    0
        0x00001a6c:    00000000    ....    DCD    0
        0x00001a70:    00000000    ....    DCD    0
        0x00001a74:    00000000    ....    DCD    0
        0x00001a78:    00000000    ....    DCD    0
        0x00001a7c:    00000000    ....    DCD    0
        0x00001a80:    00000000    ....    DCD    0
        0x00001a84:    00000000    ....    DCD    0
        0x00001a88:    00000000    ....    DCD    0
        0x00001a8c:    00000000    ....    DCD    0
        0x00001a90:    00000000    ....    DCD    0
        0x00001a94:    00000000    ....    DCD    0
        0x00001a98:    00000000    ....    DCD    0
        0x00001a9c:    00000000    ....    DCD    0
        0x00001aa0:    00000000    ....    DCD    0
        0x00001aa4:    00000000    ....    DCD    0
        0x00001aa8:    00000000    ....    DCD    0
        0x00001aac:    00000000    ....    DCD    0
        0x00001ab0:    00000000    ....    DCD    0
        0x00001ab4:    00000000    ....    DCD    0
        0x00001ab8:    00000000    ....    DCD    0
        0x00001abc:    00000000    ....    DCD    0
        0x00001ac0:    00000000    ....    DCD    0
        0x00001ac4:    00000000    ....    DCD    0
        0x00001ac8:    00000000    ....    DCD    0
        0x00001acc:    00000000    ....    DCD    0
        0x00001ad0:    00000000    ....    DCD    0
        0x00001ad4:    00000000    ....    DCD    0
        0x00001ad8:    00000000    ....    DCD    0
        0x00001adc:    00000000    ....    DCD    0
        0x00001ae0:    00000000    ....    DCD    0
        0x00001ae4:    00000000    ....    DCD    0
        0x00001ae8:    00000000    ....    DCD    0
        0x00001aec:    00000000    ....    DCD    0
        0x00001af0:    00000000    ....    DCD    0
        0x00001af4:    00000000    ....    DCD    0
        0x00001af8:    00000000    ....    DCD    0
        0x00001afc:    00000000    ....    DCD    0
        0x00001b00:    00000000    ....    DCD    0
        0x00001b04:    00000000    ....    DCD    0
        0x00001b08:    00000000    ....    DCD    0
        0x00001b0c:    00000000    ....    DCD    0
        0x00001b10:    00000000    ....    DCD    0
        0x00001b14:    00000000    ....    DCD    0
        0x00001b18:    00000000    ....    DCD    0
        0x00001b1c:    00000000    ....    DCD    0
        0x00001b20:    00000000    ....    DCD    0
        0x00001b24:    00000000    ....    DCD    0
        0x00001b28:    00000000    ....    DCD    0
        0x00001b2c:    00000000    ....    DCD    0
        0x00001b30:    00000000    ....    DCD    0
        0x00001b34:    00000000    ....    DCD    0
        0x00001b38:    00000000    ....    DCD    0
        0x00001b3c:    00000000    ....    DCD    0
        0x00001b40:    00000000    ....    DCD    0
        0x00001b44:    00000000    ....    DCD    0
        0x00001b48:    00000000    ....    DCD    0
        0x00001b4c:    00000000    ....    DCD    0
        0x00001b50:    00000000    ....    DCD    0
        0x00001b54:    00000000    ....    DCD    0
        0x00001b58:    00000000    ....    DCD    0
        0x00001b5c:    00000000    ....    DCD    0
        0x00001b60:    00000000    ....    DCD    0
        0x00001b64:    00000000    ....    DCD    0
        0x00001b68:    00000000    ....    DCD    0
        0x00001b6c:    00000000    ....    DCD    0
        0x00001b70:    00000000    ....    DCD    0
        0x00001b74:    00000000    ....    DCD    0
        0x00001b78:    00000000    ....    DCD    0
        0x00001b7c:    00000000    ....    DCD    0
        0x00001b80:    00000000    ....    DCD    0
        0x00001b84:    00000000    ....    DCD    0
        0x00001b88:    00000000    ....    DCD    0
        0x00001b8c:    00000000    ....    DCD    0
        0x00001b90:    00000000    ....    DCD    0
        0x00001b94:    00000000    ....    DCD    0
        0x00001b98:    00000000    ....    DCD    0
        0x00001b9c:    00000000    ....    DCD    0
        0x00001ba0:    00000000    ....    DCD    0
        0x00001ba4:    00000000    ....    DCD    0
        0x00001ba8:    00000000    ....    DCD    0
        0x00001bac:    00000000    ....    DCD    0
        0x00001bb0:    00000000    ....    DCD    0
        0x00001bb4:    00000000    ....    DCD    0
        0x00001bb8:    00000000    ....    DCD    0
        0x00001bbc:    00000000    ....    DCD    0
        0x00001bc0:    00000000    ....    DCD    0
        0x00001bc4:    00000000    ....    DCD    0
        0x00001bc8:    00000000    ....    DCD    0
        0x00001bcc:    00000000    ....    DCD    0
        0x00001bd0:    00000000    ....    DCD    0
        0x00001bd4:    00000000    ....    DCD    0
        0x00001bd8:    00000000    ....    DCD    0
        0x00001bdc:    00000000    ....    DCD    0
        0x00001be0:    00000000    ....    DCD    0
        0x00001be4:    00000000    ....    DCD    0
        0x00001be8:    00000000    ....    DCD    0
        0x00001bec:    00000000    ....    DCD    0
        0x00001bf0:    00000000    ....    DCD    0
        0x00001bf4:    00000000    ....    DCD    0
        0x00001bf8:    00000000    ....    DCD    0
        0x00001bfc:    00000000    ....    DCD    0
        0x00001c00:    00000000    ....    DCD    0
        0x00001c04:    00000000    ....    DCD    0
        0x00001c08:    00000000    ....    DCD    0
        0x00001c0c:    00000000    ....    DCD    0
        0x00001c10:    00000000    ....    DCD    0
        0x00001c14:    00000000    ....    DCD    0
        0x00001c18:    00000000    ....    DCD    0
        0x00001c1c:    00000000    ....    DCD    0
        0x00001c20:    00000000    ....    DCD    0
        0x00001c24:    00000000    ....    DCD    0
        0x00001c28:    00000000    ....    DCD    0
        0x00001c2c:    00000000    ....    DCD    0
        0x00001c30:    00000000    ....    DCD    0
        0x00001c34:    00000000    ....    DCD    0
        0x00001c38:    00000000    ....    DCD    0
        0x00001c3c:    00000000    ....    DCD    0
        0x00001c40:    00000000    ....    DCD    0
        0x00001c44:    00000000    ....    DCD    0
        0x00001c48:    00000000    ....    DCD    0
        0x00001c4c:    00000000    ....    DCD    0
        0x00001c50:    00000000    ....    DCD    0
        0x00001c54:    00000000    ....    DCD    0
        0x00001c58:    00000000    ....    DCD    0
        0x00001c5c:    00000000    ....    DCD    0
        0x00001c60:    00000000    ....    DCD    0
        0x00001c64:    00000000    ....    DCD    0
        0x00001c68:    00000000    ....    DCD    0
        0x00001c6c:    00000000    ....    DCD    0
        0x00001c70:    00000000    ....    DCD    0
        0x00001c74:    00000000    ....    DCD    0
        0x00001c78:    00000000    ....    DCD    0
        0x00001c7c:    00000000    ....    DCD    0
        0x00001c80:    00000000    ....    DCD    0
        0x00001c84:    00000000    ....    DCD    0
        0x00001c88:    00000000    ....    DCD    0
        0x00001c8c:    00000000    ....    DCD    0
        0x00001c90:    00000000    ....    DCD    0
        0x00001c94:    00000000    ....    DCD    0
        0x00001c98:    00000000    ....    DCD    0
        0x00001c9c:    00000000    ....    DCD    0
        0x00001ca0:    00000000    ....    DCD    0
        0x00001ca4:    00000000    ....    DCD    0
        0x00001ca8:    00000000    ....    DCD    0
        0x00001cac:    00000000    ....    DCD    0
        0x00001cb0:    00000000    ....    DCD    0
        0x00001cb4:    00000000    ....    DCD    0
        0x00001cb8:    00000000    ....    DCD    0
        0x00001cbc:    00000000    ....    DCD    0
        0x00001cc0:    00000000    ....    DCD    0
        0x00001cc4:    00000000    ....    DCD    0
        0x00001cc8:    00000000    ....    DCD    0
        0x00001ccc:    00000000    ....    DCD    0
        0x00001cd0:    00000000    ....    DCD    0
        0x00001cd4:    00000000    ....    DCD    0
        0x00001cd8:    00000000    ....    DCD    0
        0x00001cdc:    00000000    ....    DCD    0
        0x00001ce0:    00000000    ....    DCD    0
        0x00001ce4:    00000000    ....    DCD    0
        0x00001ce8:    00000000    ....    DCD    0
        0x00001cec:    00000000    ....    DCD    0
        0x00001cf0:    00000000    ....    DCD    0
        0x00001cf4:    00000000    ....    DCD    0
        0x00001cf8:    00000000    ....    DCD    0
        0x00001cfc:    00000000    ....    DCD    0
        0x00001d00:    00000000    ....    DCD    0
        0x00001d04:    00000000    ....    DCD    0
        0x00001d08:    00000000    ....    DCD    0
        0x00001d0c:    00000000    ....    DCD    0
        0x00001d10:    00000000    ....    DCD    0
        0x00001d14:    00000000    ....    DCD    0
        0x00001d18:    00000000    ....    DCD    0
        0x00001d1c:    00000000    ....    DCD    0
        0x00001d20:    00000000    ....    DCD    0
        0x00001d24:    00000000    ....    DCD    0
        0x00001d28:    00000000    ....    DCD    0
        0x00001d2c:    00000000    ....    DCD    0
        0x00001d30:    00000000    ....    DCD    0
        0x00001d34:    00000000    ....    DCD    0
        0x00001d38:    00000000    ....    DCD    0
        0x00001d3c:    00000000    ....    DCD    0
        0x00001d40:    00000000    ....    DCD    0
        0x00001d44:    00000000    ....    DCD    0
        0x00001d48:    00000000    ....    DCD    0
        0x00001d4c:    00000000    ....    DCD    0
        0x00001d50:    00000000    ....    DCD    0
        0x00001d54:    00000000    ....    DCD    0
        0x00001d58:    00000000    ....    DCD    0
        0x00001d5c:    00000000    ....    DCD    0
        0x00001d60:    00000000    ....    DCD    0
        0x00001d64:    00000000    ....    DCD    0
        0x00001d68:    00000000    ....    DCD    0
        0x00001d6c:    00000000    ....    DCD    0
        0x00001d70:    00000000    ....    DCD    0
        0x00001d74:    00000000    ....    DCD    0
        0x00001d78:    00000000    ....    DCD    0
        0x00001d7c:    00000000    ....    DCD    0
        0x00001d80:    00000000    ....    DCD    0
        0x00001d84:    00000000    ....    DCD    0
        0x00001d88:    00000000    ....    DCD    0
        0x00001d8c:    00000000    ....    DCD    0
        0x00001d90:    00000000    ....    DCD    0
        0x00001d94:    00000000    ....    DCD    0
        0x00001d98:    00000000    ....    DCD    0
        0x00001d9c:    00000000    ....    DCD    0
        0x00001da0:    00000000    ....    DCD    0
        0x00001da4:    00000000    ....    DCD    0
        0x00001da8:    00000000    ....    DCD    0
        0x00001dac:    00000000    ....    DCD    0
        0x00001db0:    00000000    ....    DCD    0
        0x00001db4:    00000000    ....    DCD    0
        0x00001db8:    00000000    ....    DCD    0
        0x00001dbc:    00000000    ....    DCD    0
        0x00001dc0:    00000000    ....    DCD    0
        0x00001dc4:    00000000    ....    DCD    0
        0x00001dc8:    00000000    ....    DCD    0
        0x00001dcc:    00000000    ....    DCD    0
        0x00001dd0:    00000000    ....    DCD    0
        0x00001dd4:    00000000    ....    DCD    0
        0x00001dd8:    00000000    ....    DCD    0
        0x00001ddc:    00000000    ....    DCD    0
        0x00001de0:    00000000    ....    DCD    0
        0x00001de4:    00000000    ....    DCD    0
        0x00001de8:    00000000    ....    DCD    0
        0x00001dec:    00000000    ....    DCD    0
        0x00001df0:    00000000    ....    DCD    0
        0x00001df4:    00000000    ....    DCD    0
        0x00001df8:    00000000    ....    DCD    0
        0x00001dfc:    00000000    ....    DCD    0
        0x00001e00:    00000000    ....    DCD    0
        0x00001e04:    00000000    ....    DCD    0
        0x00001e08:    00000000    ....    DCD    0
        0x00001e0c:    00000000    ....    DCD    0
        0x00001e10:    00000000    ....    DCD    0
        0x00001e14:    00000000    ....    DCD    0
        0x00001e18:    00000000    ....    DCD    0
        0x00001e1c:    00000000    ....    DCD    0
        0x00001e20:    00000000    ....    DCD    0
        0x00001e24:    00000000    ....    DCD    0
        0x00001e28:    00000000    ....    DCD    0
        0x00001e2c:    00000000    ....    DCD    0
        0x00001e30:    00000000    ....    DCD    0
        0x00001e34:    00000000    ....    DCD    0
        0x00001e38:    00000000    ....    DCD    0
        0x00001e3c:    00000000    ....    DCD    0
        0x00001e40:    00000000    ....    DCD    0
        0x00001e44:    00000000    ....    DCD    0
        0x00001e48:    00000000    ....    DCD    0
        0x00001e4c:    00000000    ....    DCD    0
        0x00001e50:    00000000    ....    DCD    0
        0x00001e54:    00000000    ....    DCD    0
        0x00001e58:    00000000    ....    DCD    0
        0x00001e5c:    00000000    ....    DCD    0
        0x00001e60:    00000000    ....    DCD    0
        0x00001e64:    00000000    ....    DCD    0
        0x00001e68:    00000000    ....    DCD    0
        0x00001e6c:    00000000    ....    DCD    0
        0x00001e70:    00000000    ....    DCD    0
        0x00001e74:    00000000    ....    DCD    0
        0x00001e78:    00000000    ....    DCD    0
        0x00001e7c:    00000000    ....    DCD    0
        0x00001e80:    00000000    ....    DCD    0
        0x00001e84:    00000000    ....    DCD    0
        0x00001e88:    00000000    ....    DCD    0
        0x00001e8c:    00000000    ....    DCD    0
        0x00001e90:    00000000    ....    DCD    0
        0x00001e94:    00000000    ....    DCD    0
        0x00001e98:    00000000    ....    DCD    0
        0x00001e9c:    00000000    ....    DCD    0
        0x00001ea0:    00000000    ....    DCD    0
        0x00001ea4:    00000000    ....    DCD    0
        0x00001ea8:    00000000    ....    DCD    0
        0x00001eac:    00000000    ....    DCD    0
        0x00001eb0:    00000000    ....    DCD    0
        0x00001eb4:    00000000    ....    DCD    0
        0x00001eb8:    00000000    ....    DCD    0
        0x00001ebc:    00000000    ....    DCD    0
        0x00001ec0:    00000000    ....    DCD    0
        0x00001ec4:    00000000    ....    DCD    0
        0x00001ec8:    00000000    ....    DCD    0
        0x00001ecc:    00000000    ....    DCD    0
        0x00001ed0:    00000000    ....    DCD    0
        0x00001ed4:    00000000    ....    DCD    0
        0x00001ed8:    00000000    ....    DCD    0
        0x00001edc:    00000000    ....    DCD    0
        0x00001ee0:    00000000    ....    DCD    0
        0x00001ee4:    00000000    ....    DCD    0
        0x00001ee8:    00000000    ....    DCD    0
        0x00001eec:    00000000    ....    DCD    0
        0x00001ef0:    00000000    ....    DCD    0
        0x00001ef4:    00000000    ....    DCD    0
        0x00001ef8:    00000000    ....    DCD    0
        0x00001efc:    00000000    ....    DCD    0
        0x00001f00:    00000000    ....    DCD    0
        0x00001f04:    00000000    ....    DCD    0
        0x00001f08:    00000000    ....    DCD    0
        0x00001f0c:    00000000    ....    DCD    0
        0x00001f10:    00000000    ....    DCD    0
        0x00001f14:    00000000    ....    DCD    0
        0x00001f18:    00000000    ....    DCD    0
        0x00001f1c:    00000000    ....    DCD    0
        0x00001f20:    00000000    ....    DCD    0
        0x00001f24:    00000000    ....    DCD    0
        0x00001f28:    00000000    ....    DCD    0
        0x00001f2c:    00000000    ....    DCD    0
        0x00001f30:    00000000    ....    DCD    0
        0x00001f34:    00000000    ....    DCD    0
        0x00001f38:    00000000    ....    DCD    0
        0x00001f3c:    00000000    ....    DCD    0
        0x00001f40:    00000000    ....    DCD    0
        0x00001f44:    00000000    ....    DCD    0
        0x00001f48:    00000000    ....    DCD    0
        0x00001f4c:    00000000    ....    DCD    0
        0x00001f50:    00000000    ....    DCD    0
        0x00001f54:    00000000    ....    DCD    0
        0x00001f58:    00000000    ....    DCD    0
        0x00001f5c:    00000000    ....    DCD    0
        0x00001f60:    00000000    ....    DCD    0
        0x00001f64:    00000000    ....    DCD    0
        0x00001f68:    00000000    ....    DCD    0
        0x00001f6c:    00000000    ....    DCD    0
        0x00001f70:    00000000    ....    DCD    0
        0x00001f74:    00000000    ....    DCD    0
        0x00001f78:    00000000    ....    DCD    0
        0x00001f7c:    00000000    ....    DCD    0
        0x00001f80:    00000000    ....    DCD    0
        0x00001f84:    00000000    ....    DCD    0
        0x00001f88:    00000000    ....    DCD    0
        0x00001f8c:    00000000    ....    DCD    0
        0x00001f90:    00000000    ....    DCD    0
        0x00001f94:    00000000    ....    DCD    0
        0x00001f98:    00000000    ....    DCD    0
        0x00001f9c:    00000000    ....    DCD    0
        0x00001fa0:    00000000    ....    DCD    0
        0x00001fa4:    00000000    ....    DCD    0
        0x00001fa8:    00000000    ....    DCD    0
        0x00001fac:    00000000    ....    DCD    0
        0x00001fb0:    00000000    ....    DCD    0
        0x00001fb4:    00000000    ....    DCD    0
        0x00001fb8:    00000000    ....    DCD    0
        0x00001fbc:    00000000    ....    DCD    0
        0x00001fc0:    00000000    ....    DCD    0
        0x00001fc4:    00000000    ....    DCD    0
        0x00001fc8:    00000000    ....    DCD    0
        0x00001fcc:    00000000    ....    DCD    0
        0x00001fd0:    00000000    ....    DCD    0
        0x00001fd4:    00000000    ....    DCD    0
        0x00001fd8:    00000000    ....    DCD    0
        0x00001fdc:    00000000    ....    DCD    0
        0x00001fe0:    00000000    ....    DCD    0
        0x00001fe4:    00000000    ....    DCD    0
        0x00001fe8:    00000000    ....    DCD    0
        0x00001fec:    00000000    ....    DCD    0
        0x00001ff0:    00000000    ....    DCD    0
        0x00001ff4:    00000000    ....    DCD    0
        0x00001ff8:    00000000    ....    DCD    0
        0x00001ffc:    00000000    ....    DCD    0
        0x00002000:    00000000    ....    DCD    0
        0x00002004:    00000000    ....    DCD    0
        0x00002008:    00000000    ....    DCD    0
        0x0000200c:    00000000    ....    DCD    0
        0x00002010:    00000000    ....    DCD    0
        0x00002014:    00000000    ....    DCD    0
        0x00002018:    00000000    ....    DCD    0
        0x0000201c:    00000000    ....    DCD    0
        0x00002020:    00000000    ....    DCD    0
        0x00002024:    00000000    ....    DCD    0
        0x00002028:    00000000    ....    DCD    0
        0x0000202c:    00000000    ....    DCD    0
        0x00002030:    00000000    ....    DCD    0
        0x00002034:    00000000    ....    DCD    0
        0x00002038:    00000000    ....    DCD    0
        0x0000203c:    00000000    ....    DCD    0
        0x00002040:    00000000    ....    DCD    0
        0x00002044:    00000000    ....    DCD    0
        0x00002048:    00000000    ....    DCD    0
        0x0000204c:    00000000    ....    DCD    0
        0x00002050:    00000000    ....    DCD    0
        0x00002054:    00000000    ....    DCD    0
        0x00002058:    00000000    ....    DCD    0
        0x0000205c:    00000000    ....    DCD    0
        0x00002060:    00000000    ....    DCD    0
        0x00002064:    00000000    ....    DCD    0
        0x00002068:    00000000    ....    DCD    0
        0x0000206c:    00000000    ....    DCD    0
        0x00002070:    00000000    ....    DCD    0
        0x00002074:    00000000    ....    DCD    0
        0x00002078:    00000000    ....    DCD    0
        0x0000207c:    00000000    ....    DCD    0
        0x00002080:    00000000    ....    DCD    0
        0x00002084:    00000000    ....    DCD    0
        0x00002088:    00000000    ....    DCD    0
        0x0000208c:    00000000    ....    DCD    0
        0x00002090:    00000000    ....    DCD    0
        0x00002094:    00000000    ....    DCD    0
        0x00002098:    00000000    ....    DCD    0
        0x0000209c:    00000000    ....    DCD    0
        0x000020a0:    00000000    ....    DCD    0
        0x000020a4:    00000000    ....    DCD    0
        0x000020a8:    00000000    ....    DCD    0
        0x000020ac:    00000000    ....    DCD    0
        0x000020b0:    00000000    ....    DCD    0
        0x000020b4:    00000000    ....    DCD    0
        0x000020b8:    00000000    ....    DCD    0
        0x000020bc:    00000000    ....    DCD    0
        0x000020c0:    00000000    ....    DCD    0
        0x000020c4:    00000000    ....    DCD    0
        0x000020c8:    00000000    ....    DCD    0
        0x000020cc:    00000000    ....    DCD    0
        0x000020d0:    00000000    ....    DCD    0
        0x000020d4:    00000000    ....    DCD    0
        0x000020d8:    00000000    ....    DCD    0
        0x000020dc:    00000000    ....    DCD    0
        0x000020e0:    00000000    ....    DCD    0
        0x000020e4:    00000000    ....    DCD    0
        0x000020e8:    00000000    ....    DCD    0
        0x000020ec:    00000000    ....    DCD    0
        0x000020f0:    00000000    ....    DCD    0
        0x000020f4:    00000000    ....    DCD    0
        0x000020f8:    00000000    ....    DCD    0
        0x000020fc:    00000000    ....    DCD    0
        0x00002100:    00000000    ....    DCD    0
        0x00002104:    00000000    ....    DCD    0
        0x00002108:    00000000    ....    DCD    0
        0x0000210c:    00000000    ....    DCD    0
        0x00002110:    00000000    ....    DCD    0
        0x00002114:    00000000    ....    DCD    0
        0x00002118:    00000000    ....    DCD    0
        0x0000211c:    00000000    ....    DCD    0
        0x00002120:    00000000    ....    DCD    0
        0x00002124:    00000000    ....    DCD    0
        0x00002128:    00000000    ....    DCD    0
        0x0000212c:    00000000    ....    DCD    0
        0x00002130:    00000000    ....    DCD    0
        0x00002134:    00000000    ....    DCD    0
        0x00002138:    00000000    ....    DCD    0
        0x0000213c:    00000000    ....    DCD    0
        0x00002140:    00000000    ....    DCD    0
        0x00002144:    00000000    ....    DCD    0
        0x00002148:    00000000    ....    DCD    0
        0x0000214c:    00000000    ....    DCD    0
        0x00002150:    00000000    ....    DCD    0
        0x00002154:    00000000    ....    DCD    0
        0x00002158:    00000000    ....    DCD    0
        0x0000215c:    00000000    ....    DCD    0
        0x00002160:    00000000    ....    DCD    0
        0x00002164:    00000000    ....    DCD    0
        0x00002168:    00000000    ....    DCD    0
        0x0000216c:    00000000    ....    DCD    0
        0x00002170:    00000000    ....    DCD    0
        0x00002174:    00000000    ....    DCD    0
        0x00002178:    00000000    ....    DCD    0
        0x0000217c:    00000000    ....    DCD    0
        0x00002180:    00000000    ....    DCD    0
        0x00002184:    00000000    ....    DCD    0
        0x00002188:    00000000    ....    DCD    0
        0x0000218c:    00000000    ....    DCD    0
        0x00002190:    00000000    ....    DCD    0
        0x00002194:    00000000    ....    DCD    0
        0x00002198:    00000000    ....    DCD    0
        0x0000219c:    00000000    ....    DCD    0
        0x000021a0:    00000000    ....    DCD    0
        0x000021a4:    00000000    ....    DCD    0
        0x000021a8:    00000000    ....    DCD    0
        0x000021ac:    00000000    ....    DCD    0
        0x000021b0:    00000000    ....    DCD    0
        0x000021b4:    00000000    ....    DCD    0
        0x000021b8:    00000000    ....    DCD    0
        0x000021bc:    00000000    ....    DCD    0
        0x000021c0:    00000000    ....    DCD    0
        0x000021c4:    00000000    ....    DCD    0
        0x000021c8:    00000000    ....    DCD    0
        0x000021cc:    00000000    ....    DCD    0
        0x000021d0:    00000000    ....    DCD    0
        0x000021d4:    00000000    ....    DCD    0
        0x000021d8:    00000000    ....    DCD    0
        0x000021dc:    00000000    ....    DCD    0
        0x000021e0:    00000000    ....    DCD    0
        0x000021e4:    00000000    ....    DCD    0
        0x000021e8:    00000000    ....    DCD    0
        0x000021ec:    00000000    ....    DCD    0
        0x000021f0:    00000000    ....    DCD    0
        0x000021f4:    00000000    ....    DCD    0
        0x000021f8:    00000000    ....    DCD    0
        0x000021fc:    00000000    ....    DCD    0
        0x00002200:    00000000    ....    DCD    0
        0x00002204:    00000000    ....    DCD    0
        0x00002208:    00000000    ....    DCD    0
        0x0000220c:    00000000    ....    DCD    0
        0x00002210:    00000000    ....    DCD    0
        0x00002214:    00000000    ....    DCD    0
        0x00002218:    00000000    ....    DCD    0
        0x0000221c:    00000000    ....    DCD    0
        0x00002220:    00000000    ....    DCD    0
        0x00002224:    00000000    ....    DCD    0
        0x00002228:    00000000    ....    DCD    0
        0x0000222c:    00000000    ....    DCD    0
        0x00002230:    00000000    ....    DCD    0
        0x00002234:    00000000    ....    DCD    0
        0x00002238:    00000000    ....    DCD    0
        0x0000223c:    00000000    ....    DCD    0
        0x00002240:    00000000    ....    DCD    0
        0x00002244:    00000000    ....    DCD    0
        0x00002248:    00000000    ....    DCD    0
        0x0000224c:    00000000    ....    DCD    0
        0x00002250:    00000000    ....    DCD    0

** Section #5 '.debug_abbrev' (SHT_PROGBITS)
    Size   : 2328 bytes


** Section #6 '.debug_frame' (SHT_PROGBITS)
    Size   : 1340 bytes


** Section #7 '.debug_info' (SHT_PROGBITS)
    Size   : 11676 bytes


** Section #8 '.debug_line' (SHT_PROGBITS)
    Size   : 4832 bytes


** Section #9 '.debug_loc' (SHT_PROGBITS)
    Size   : 4235 bytes


** Section #10 '.debug_str' (SHT_PROGBITS)
    Size   : 6359 bytes


** Section #11 '.debug_ranges' (SHT_PROGBITS)
    Size   : 56 bytes


** Section #12 '.symtab' (SHT_SYMTAB)
    Size   : 1360 bytes (alignment 4)
    String table #13 '.strtab'
    Last local symbol no. 26


** Section #13 '.strtab' (SHT_STRTAB)
    Size   : 1148 bytes


** Section #14 '.note' (SHT_NOTE)
    Size   : 32 bytes (alignment 4)


** Section #15 '.comment' (SHT_PROGBITS)
    Size   : 528 bytes


** Section #16 '.shstrtab' (SHT_STRTAB)
    Size   : 156 bytes


address     size       variable name                            type
0x000011ac  0x4        CyclesPerUs                              uint32_t

address     size       variable name                            type
0x000011b0  0x4        SystemCoreClock                          uint32_t

address     size       variable name                            type
0x00001194  0x4        IAP_Cache_Config                         const IAP_Cache_Config_t

address     size       variable name                            type
0x00001198  0x4        IAP_Flash_Erase                          const IAP_Flash_Erase_t

address     size       variable name                            type
0x0000119c  0x4        IAP_Flash_Param                          const IAP_Flash_Param_t

address     size       variable name                            type
0x000011a0  0x4        IAP_Flash_ParamTAC                       const IAP_Flash_Param_t

address     size       variable name                            type
0x000011a4  0x4        IAP_Flash_Write                          const IAP_Flash_Write_t

address     size       variable name                            type
0x000011b4  0x1        AddressSize                              uint8_t

address     size       variable name                            type
0x000011b4  0x10a0     FlashDevice                              const FlashDevice
0x000011b4  0x2        FlashDevice.Vers                         unsigned short
0x000011b6  0x80       FlashDevice.DevName                      array[128] of char
0x00001236  0x2        FlashDevice.DevType                      unsigned short
0x00001238  0x4        FlashDevice.DevAdr                       long unsigned int
0x0000123c  0x4        FlashDevice.szDev                        long unsigned int
0x00001240  0x4        FlashDevice.szPage                       long unsigned int
0x00001244  0x4        FlashDevice.Res                          long unsigned int
0x00001248  0x1      * FlashDevice.valEmpty                     unsigned char
0x0000124c  0x4        FlashDevice.toProg                       long unsigned int
0x00001250  0x4        FlashDevice.toErase                      long unsigned int
0x00001254  0x1000     FlashDevice.sectors                      array[512] of FlashSectors

